

Microchip MPLAB XC8 Assembler V2.32 build 20210201212658 
                                                                                               Tue Oct 19 13:58:39 2021

Microchip MPLAB XC8 C Compiler v2.32 (Free license) build 20210201212658 Og1 
     1                           	processor	16F877A
     2                           	pagewidth 120
     3                           	opt	flic
     4                           	psect	idataBANK0,global,class=CODE,delta=2,noexec
     5                           	psect	idataBANK1,global,class=CODE,delta=2,noexec
     6                           	psect	strings,global,class=STRING,delta=2,noexec
     7                           	psect	stringtext,global,reloc=256,class=STRCODE,delta=2,noexec
     8                           	psect	cinit,global,class=CODE,merge=1,delta=2
     9                           	psect	bssCOMMON,global,class=COMMON,space=1,delta=1,noexec
    10                           	psect	bssBANK0,global,class=BANK0,space=1,delta=1,noexec
    11                           	psect	dataBANK0,global,class=BANK0,space=1,delta=1,noexec
    12                           	psect	bssBANK1,global,class=BANK1,space=1,delta=1,noexec
    13                           	psect	dataBANK1,global,class=BANK1,space=1,delta=1,noexec
    14                           	psect	inittext,global,class=CODE,delta=2
    15                           	psect	cstackBANK1,global,class=BANK1,space=1,delta=1,noexec
    16                           	psect	cstackCOMMON,global,class=COMMON,space=1,delta=1,noexec
    17                           	psect	cstackBANK0,global,class=BANK0,space=1,delta=1,noexec
    18                           	psect	maintext,global,class=CODE,split=1,delta=2
    19                           	psect	text1,local,class=CODE,merge=1,delta=2
    20                           	psect	text2,local,class=CODE,merge=1,delta=2
    21                           	psect	text3,local,class=CODE,merge=1,delta=2
    22                           	psect	text4,local,class=CODE,merge=1,delta=2
    23                           	psect	text5,local,class=CODE,merge=1,delta=2
    24                           	psect	text6,local,class=CODE,merge=1,delta=2
    25                           	psect	text7,local,class=CODE,merge=1,delta=2,group=1
    26                           	psect	text8,local,class=CODE,merge=1,delta=2,group=1
    27                           	psect	text9,local,class=CODE,merge=1,delta=2,group=1
    28                           	psect	text10,local,class=CODE,merge=1,delta=2,group=1
    29                           	psect	text11,local,class=CODE,merge=1,delta=2,group=1
    30                           	psect	text12,local,class=CODE,merge=1,delta=2,group=1
    31                           	psect	text13,local,class=CODE,merge=1,delta=2,group=1
    32                           	psect	text14,local,class=CODE,merge=1,delta=2,group=1
    33                           	psect	text15,local,class=CODE,merge=1,delta=2,group=1
    34                           	psect	text16,local,class=CODE,merge=1,delta=2,group=1
    35                           	psect	text17,local,class=CODE,merge=1,delta=2
    36                           	psect	text18,local,class=CODE,merge=1,delta=2
    37                           	psect	text19,local,class=CODE,merge=1,delta=2
    38                           	psect	text20,local,class=CODE,merge=1,delta=2
    39                           	psect	text21,local,class=CODE,merge=1,delta=2
    40                           	psect	text22,local,class=CODE,merge=1,delta=2
    41                           	psect	text23,local,class=CODE,merge=1,delta=2
    42                           	psect	text24,local,class=CODE,merge=1,delta=2
    43                           	psect	text25,local,class=CODE,merge=1,delta=2
    44                           	psect	text26,local,class=CODE,merge=1,delta=2
    45                           	psect	text27,local,class=CODE,merge=1,delta=2
    46                           	psect	text28,local,class=CODE,merge=1,delta=2
    47                           	psect	intentry,global,class=CODE,delta=2
    48                           	psect	config,global,abs,ovrld,class=CONFIG,space=4,delta=2,noexec
    49                           	dabs	1,0x7E,2
    50  0000                     
    51                           ; Version 2.20
    52                           ; Generated 12/02/2020 GMT
    53                           ; 
    54                           ; Copyright © 2020, Microchip Technology Inc. and its subsidiaries ("Microchip")
    55                           ; All rights reserved.
    56                           ; 
    57                           ; This software is developed by Microchip Technology Inc. and its subsidiaries ("Microch
      +                          ip").
    58                           ; 
    59                           ; Redistribution and use in source and binary forms, with or without modification, are
    60                           ; permitted provided that the following conditions are met:
    61                           ; 
    62                           ;     1. Redistributions of source code must retain the above copyright notice, this lis
      +                          t of
    63                           ;        conditions and the following disclaimer.
    64                           ; 
    65                           ;     2. Redistributions in binary form must reproduce the above copyright notice, this 
      +                          list
    66                           ;        of conditions and the following disclaimer in the documentation and/or other
    67                           ;        materials provided with the distribution.
    68                           ; 
    69                           ;     3. Microchip's name may not be used to endorse or promote products derived from th
      +                          is
    70                           ;        software without specific prior written permission.
    71                           ; 
    72                           ; THIS SOFTWARE IS PROVIDED BY MICROCHIP "AS IS" AND ANY EXPRESS OR IMPLIED WARRANTIES,
    73                           ; INCLUDING, BUT NOT LIMITED TO, THE IMPLIED WARRANTIES OF MERCHANTABILITY AND FITNESS F
      +                          OR
    74                           ; PURPOSE ARE DISCLAIMED.  IN NO EVENT SHALL MICROCHIP BE LIABLE FOR ANY DIRECT, INDIREC
      +                          T,
    75                           ; INCIDENTAL, SPECIAL, EXEMPLARY, OR CONSEQUENTIAL DAMAGES (INCLUDING BUT NOT LIMITED TO
    76                           ; PROCUREMENT OF SUBSTITUTE GOODS OR SERVICES; LOSS OF USE, DATA OR PROFITS; OR BUSINESS
    77                           ; INTERRUPTION) HOWSOEVER CAUSED AND ON ANY THEORY OF LIABILITY, WHETHER IN CONTRACT, ST
      +                          RICT
    78                           ; LIABILITY, OR TORT (INCLUDING NEGLIGENCE OR OTHERWISE) ARISING IN ANY WAY OUT OF THE U
      +                          SE OF
    79                           ; THIS SOFTWARE, EVEN IF ADVISED OF THE POSSIBILITY OF SUCH DAMAGE.
    80                           ; 
    81                           ; 
    82                           ; Code-generator required, PIC16F877A Definitions
    83                           ; 
    84                           ; SFR Addresses
    85  0000                     	;# 
    86  0001                     	;# 
    87  0002                     	;# 
    88  0003                     	;# 
    89  0004                     	;# 
    90  0005                     	;# 
    91  0006                     	;# 
    92  0007                     	;# 
    93  0008                     	;# 
    94  0009                     	;# 
    95  000A                     	;# 
    96  000B                     	;# 
    97  000C                     	;# 
    98  000D                     	;# 
    99  000E                     	;# 
   100  000E                     	;# 
   101  000F                     	;# 
   102  0010                     	;# 
   103  0011                     	;# 
   104  0012                     	;# 
   105  0013                     	;# 
   106  0014                     	;# 
   107  0015                     	;# 
   108  0015                     	;# 
   109  0016                     	;# 
   110  0017                     	;# 
   111  0018                     	;# 
   112  0019                     	;# 
   113  001A                     	;# 
   114  001B                     	;# 
   115  001B                     	;# 
   116  001C                     	;# 
   117  001D                     	;# 
   118  001E                     	;# 
   119  001F                     	;# 
   120  0081                     	;# 
   121  0085                     	;# 
   122  0086                     	;# 
   123  0087                     	;# 
   124  0088                     	;# 
   125  0089                     	;# 
   126  008C                     	;# 
   127  008D                     	;# 
   128  008E                     	;# 
   129  0091                     	;# 
   130  0092                     	;# 
   131  0093                     	;# 
   132  0094                     	;# 
   133  0098                     	;# 
   134  0099                     	;# 
   135  009C                     	;# 
   136  009D                     	;# 
   137  009E                     	;# 
   138  009F                     	;# 
   139  010C                     	;# 
   140  010D                     	;# 
   141  010E                     	;# 
   142  010F                     	;# 
   143  018C                     	;# 
   144  018D                     	;# 
   145  0000                     	;# 
   146  0001                     	;# 
   147  0002                     	;# 
   148  0003                     	;# 
   149  0004                     	;# 
   150  0005                     	;# 
   151  0006                     	;# 
   152  0007                     	;# 
   153  0008                     	;# 
   154  0009                     	;# 
   155  000A                     	;# 
   156  000B                     	;# 
   157  000C                     	;# 
   158  000D                     	;# 
   159  000E                     	;# 
   160  000E                     	;# 
   161  000F                     	;# 
   162  0010                     	;# 
   163  0011                     	;# 
   164  0012                     	;# 
   165  0013                     	;# 
   166  0014                     	;# 
   167  0015                     	;# 
   168  0015                     	;# 
   169  0016                     	;# 
   170  0017                     	;# 
   171  0018                     	;# 
   172  0019                     	;# 
   173  001A                     	;# 
   174  001B                     	;# 
   175  001B                     	;# 
   176  001C                     	;# 
   177  001D                     	;# 
   178  001E                     	;# 
   179  001F                     	;# 
   180  0081                     	;# 
   181  0085                     	;# 
   182  0086                     	;# 
   183  0087                     	;# 
   184  0088                     	;# 
   185  0089                     	;# 
   186  008C                     	;# 
   187  008D                     	;# 
   188  008E                     	;# 
   189  0091                     	;# 
   190  0092                     	;# 
   191  0093                     	;# 
   192  0094                     	;# 
   193  0098                     	;# 
   194  0099                     	;# 
   195  009C                     	;# 
   196  009D                     	;# 
   197  009E                     	;# 
   198  009F                     	;# 
   199  010C                     	;# 
   200  010D                     	;# 
   201  010E                     	;# 
   202  010F                     	;# 
   203  018C                     	;# 
   204  018D                     	;# 
   205  0000                     	;# 
   206  0001                     	;# 
   207  0002                     	;# 
   208  0003                     	;# 
   209  0004                     	;# 
   210  0005                     	;# 
   211  0006                     	;# 
   212  0007                     	;# 
   213  0008                     	;# 
   214  0009                     	;# 
   215  000A                     	;# 
   216  000B                     	;# 
   217  000C                     	;# 
   218  000D                     	;# 
   219  000E                     	;# 
   220  000E                     	;# 
   221  000F                     	;# 
   222  0010                     	;# 
   223  0011                     	;# 
   224  0012                     	;# 
   225  0013                     	;# 
   226  0014                     	;# 
   227  0015                     	;# 
   228  0015                     	;# 
   229  0016                     	;# 
   230  0017                     	;# 
   231  0018                     	;# 
   232  0019                     	;# 
   233  001A                     	;# 
   234  001B                     	;# 
   235  001B                     	;# 
   236  001C                     	;# 
   237  001D                     	;# 
   238  001E                     	;# 
   239  001F                     	;# 
   240  0081                     	;# 
   241  0085                     	;# 
   242  0086                     	;# 
   243  0087                     	;# 
   244  0088                     	;# 
   245  0089                     	;# 
   246  008C                     	;# 
   247  008D                     	;# 
   248  008E                     	;# 
   249  0091                     	;# 
   250  0092                     	;# 
   251  0093                     	;# 
   252  0094                     	;# 
   253  0098                     	;# 
   254  0099                     	;# 
   255  009C                     	;# 
   256  009D                     	;# 
   257  009E                     	;# 
   258  009F                     	;# 
   259  010C                     	;# 
   260  010D                     	;# 
   261  010E                     	;# 
   262  010F                     	;# 
   263  018C                     	;# 
   264  018D                     	;# 
   265  0000                     	;# 
   266  0001                     	;# 
   267  0002                     	;# 
   268  0003                     	;# 
   269  0004                     	;# 
   270  0005                     	;# 
   271  0006                     	;# 
   272  0007                     	;# 
   273  0008                     	;# 
   274  0009                     	;# 
   275  000A                     	;# 
   276  000B                     	;# 
   277  000C                     	;# 
   278  000D                     	;# 
   279  000E                     	;# 
   280  000E                     	;# 
   281  000F                     	;# 
   282  0010                     	;# 
   283  0011                     	;# 
   284  0012                     	;# 
   285  0013                     	;# 
   286  0014                     	;# 
   287  0015                     	;# 
   288  0015                     	;# 
   289  0016                     	;# 
   290  0017                     	;# 
   291  0018                     	;# 
   292  0019                     	;# 
   293  001A                     	;# 
   294  001B                     	;# 
   295  001B                     	;# 
   296  001C                     	;# 
   297  001D                     	;# 
   298  001E                     	;# 
   299  001F                     	;# 
   300  0081                     	;# 
   301  0085                     	;# 
   302  0086                     	;# 
   303  0087                     	;# 
   304  0088                     	;# 
   305  0089                     	;# 
   306  008C                     	;# 
   307  008D                     	;# 
   308  008E                     	;# 
   309  0091                     	;# 
   310  0092                     	;# 
   311  0093                     	;# 
   312  0094                     	;# 
   313  0098                     	;# 
   314  0099                     	;# 
   315  009C                     	;# 
   316  009D                     	;# 
   317  009E                     	;# 
   318  009F                     	;# 
   319  010C                     	;# 
   320  010D                     	;# 
   321  010E                     	;# 
   322  010F                     	;# 
   323  018C                     	;# 
   324  018D                     	;# 
   325  0000                     	;# 
   326  0001                     	;# 
   327  0002                     	;# 
   328  0003                     	;# 
   329  0004                     	;# 
   330  0005                     	;# 
   331  0006                     	;# 
   332  0007                     	;# 
   333  0008                     	;# 
   334  0009                     	;# 
   335  000A                     	;# 
   336  000B                     	;# 
   337  000C                     	;# 
   338  000D                     	;# 
   339  000E                     	;# 
   340  000E                     	;# 
   341  000F                     	;# 
   342  0010                     	;# 
   343  0011                     	;# 
   344  0012                     	;# 
   345  0013                     	;# 
   346  0014                     	;# 
   347  0015                     	;# 
   348  0015                     	;# 
   349  0016                     	;# 
   350  0017                     	;# 
   351  0018                     	;# 
   352  0019                     	;# 
   353  001A                     	;# 
   354  001B                     	;# 
   355  001B                     	;# 
   356  001C                     	;# 
   357  001D                     	;# 
   358  001E                     	;# 
   359  001F                     	;# 
   360  0081                     	;# 
   361  0085                     	;# 
   362  0086                     	;# 
   363  0087                     	;# 
   364  0088                     	;# 
   365  0089                     	;# 
   366  008C                     	;# 
   367  008D                     	;# 
   368  008E                     	;# 
   369  0091                     	;# 
   370  0092                     	;# 
   371  0093                     	;# 
   372  0094                     	;# 
   373  0098                     	;# 
   374  0099                     	;# 
   375  009C                     	;# 
   376  009D                     	;# 
   377  009E                     	;# 
   378  009F                     	;# 
   379  010C                     	;# 
   380  010D                     	;# 
   381  010E                     	;# 
   382  010F                     	;# 
   383  018C                     	;# 
   384  018D                     	;# 
   385  0000                     	;# 
   386  0001                     	;# 
   387  0002                     	;# 
   388  0003                     	;# 
   389  0004                     	;# 
   390  0005                     	;# 
   391  0006                     	;# 
   392  0007                     	;# 
   393  0008                     	;# 
   394  0009                     	;# 
   395  000A                     	;# 
   396  000B                     	;# 
   397  000C                     	;# 
   398  000D                     	;# 
   399  000E                     	;# 
   400  000E                     	;# 
   401  000F                     	;# 
   402  0010                     	;# 
   403  0011                     	;# 
   404  0012                     	;# 
   405  0013                     	;# 
   406  0014                     	;# 
   407  0015                     	;# 
   408  0015                     	;# 
   409  0016                     	;# 
   410  0017                     	;# 
   411  0018                     	;# 
   412  0019                     	;# 
   413  001A                     	;# 
   414  001B                     	;# 
   415  001B                     	;# 
   416  001C                     	;# 
   417  001D                     	;# 
   418  001E                     	;# 
   419  001F                     	;# 
   420  0081                     	;# 
   421  0085                     	;# 
   422  0086                     	;# 
   423  0087                     	;# 
   424  0088                     	;# 
   425  0089                     	;# 
   426  008C                     	;# 
   427  008D                     	;# 
   428  008E                     	;# 
   429  0091                     	;# 
   430  0092                     	;# 
   431  0093                     	;# 
   432  0094                     	;# 
   433  0098                     	;# 
   434  0099                     	;# 
   435  009C                     	;# 
   436  009D                     	;# 
   437  009E                     	;# 
   438  009F                     	;# 
   439  010C                     	;# 
   440  010D                     	;# 
   441  010E                     	;# 
   442  010F                     	;# 
   443  018C                     	;# 
   444  018D                     	;# 
   445                           
   446                           	psect	idataBANK0
   447  07FE                     __pidataBANK0:
   448                           
   449                           ;initializer for read_digital_keypad@once
   450  07FE  3401               	retlw	1
   451                           
   452                           	psect	idataBANK1
   453  1371                     __pidataBANK1:
   454                           
   455                           ;initializer for _washing_prog
   456  1371  34AC               	retlw	low (STR_1| (0+32768))
   457  1372  3491               	retlw	high (STR_1| (0+32768))
   458  1373  34B2               	retlw	low (STR_2| (0+32768))
   459  1374  3491               	retlw	high (STR_2| (0+32768))
   460  1375  345E               	retlw	low (STR_3| (0+32768))
   461  1376  3491               	retlw	high (STR_3| (0+32768))
   462  1377  34A6               	retlw	low (STR_4| (0+32768))
   463  1378  3491               	retlw	high (STR_4| (0+32768))
   464  1379  341A               	retlw	low (STR_5| (0+32768))
   465  137A  3491               	retlw	high (STR_5| (0+32768))
   466  137B  3424               	retlw	low (STR_6| (0+32768))
   467  137C  3491               	retlw	high (STR_6| (0+32768))
   468  137D  3478               	retlw	low (STR_7| (0+32768))
   469  137E  3491               	retlw	high (STR_7| (0+32768))
   470  137F  342E               	retlw	low (STR_8| (0+32768))
   471  1380  3491               	retlw	high (STR_8| (0+32768))
   472  1381  3442               	retlw	low (STR_9| (0+32768))
   473  1382  3491               	retlw	high (STR_9| (0+32768))
   474  1383  3467               	retlw	low (STR_10| (0+32768))
   475  1384  3491               	retlw	high (STR_10| (0+32768))
   476  1385  3438               	retlw	low (STR_11| (0+32768))
   477  1386  3491               	retlw	high (STR_11| (0+32768))
   478  1387  34F1               	retlw	low (STR_12| (0+32768))
   479  1388  3490               	retlw	high (STR_12| (0+32768))
   480                           
   481                           ;initializer for _water_levels
   482  1389  34BD               	retlw	low (STR_13| (0+32768))
   483  138A  3491               	retlw	high (STR_13| (0+32768))
   484  138B  34C2               	retlw	low (STR_14| (0+32768))
   485  138C  3491               	retlw	high (STR_14| (0+32768))
   486  138D  3487               	retlw	low (STR_15| (0+32768))
   487  138E  3491               	retlw	high (STR_15| (0+32768))
   488  138F  34B8               	retlw	low (STR_16| (0+32768))
   489  1390  3491               	retlw	high (STR_16| (0+32768))
   490  1391  3410               	retlw	low (STR_17| (0+32768))
   491  1392  3491               	retlw	high (STR_17| (0+32768))
   492  0006                     _PORTB	set	6
   493  0008                     _PORTD	set	8
   494  0061                     _TMR2IF	set	97
   495  0091                     _T2CKPS1	set	145
   496  0090                     _T2CKPS0	set	144
   497  0049                     _RE1	set	73
   498  004A                     _RE2	set	74
   499  0039                     _RC1	set	57
   500  0030                     _RB0	set	48
   501  003A                     _RC2	set	58
   502  0092                     _TMR2ON	set	146
   503  005F                     _GIE	set	95
   504  005E                     _PEIE	set	94
   505  0092                     _PR2	set	146
   506  0086                     _TRISB	set	134
   507  0088                     _TRISD	set	136
   508  0461                     _TMR2IE	set	1121
   509  0449                     _TRISE1	set	1097
   510  044A                     _TRISE2	set	1098
   511  0439                     _TRISC1	set	1081
   512  043A                     _TRISC2	set	1082
   513                           
   514                           	psect	strings
   515  11C6                     __pstrings:
   516  11C6                     stringtab:
   517  11C6                     __stringtab:
   518                           
   519                           ;	String table - string pointers are 2 bytes each
   520  11C6  1BFF               	btfsc	btemp+1,7
   521  11C7  29D0               	ljmp	stringcode
   522  11C8  1383               	bcf	3,7
   523  11C9  187F               	btfsc	btemp+1,0
   524  11CA  1783               	bsf	3,7
   525  11CB  0800               	movf	0,w
   526  11CC  0A84               	incf	4,f
   527  11CD  1903               	skipnz
   528  11CE  0AFF               	incf	btemp+1,f
   529  11CF  0008               	return
   530  11D0                     stringcode:
   531  11D0  087F               	movf	btemp+1,w
   532  11D1  397F               	andlw	127
   533  11D2  008A               	movwf	10
   534  11D3  0804               	movf	4,w
   535  11D4  0A84               	incf	4,f
   536  11D5  1903               	skipnz
   537  11D6  0AFF               	incf	btemp+1,f
   538  11D7  0082               	movwf	2
   539  11D8                     __stringbase:
   540  11D8                     __end_of__stringtab:
   541                           
   542                           	psect	stringtext
   543  1000                     __pstringtext:
   544  1000                     STR_34:
   545  1000  3435               	retlw	53	;'5'
   546  1001  342D               	retlw	45	;'-'
   547  1002  3453               	retlw	83	;'S'
   548  1003  3454               	retlw	84	;'T'
   549  1004  3441               	retlw	65	;'A'
   550  1005  3452               	retlw	82	;'R'
   551  1006  3454               	retlw	84	;'T'
   552  1007  3420               	retlw	32	;' '
   553  1008  3420               	retlw	32	;' '
   554  1009  3436               	retlw	54	;'6'
   555  100A  342D               	retlw	45	;'-'
   556  100B  3450               	retlw	80	;'P'
   557  100C  3441               	retlw	65	;'A'
   558  100D  3455               	retlw	85	;'U'
   559  100E  3453               	retlw	83	;'S'
   560  100F  3445               	retlw	69	;'E'
   561  1010  3400               	retlw	0
   562  1011                     STR_20:
   563  1011  3457               	retlw	87	;'W'
   564  1012  3461               	retlw	97	;'a'
   565  1013  3473               	retlw	115	;'s'
   566  1014  3468               	retlw	104	;'h'
   567  1015  3469               	retlw	105	;'i'
   568  1016  346E               	retlw	110	;'n'
   569  1017  3467               	retlw	103	;'g'
   570  1018  3420               	retlw	32	;' '
   571  1019  3420               	retlw	32	;' '
   572  101A  344D               	retlw	77	;'M'
   573  101B  3461               	retlw	97	;'a'
   574  101C  3463               	retlw	99	;'c'
   575  101D  3468               	retlw	104	;'h'
   576  101E  3469               	retlw	105	;'i'
   577  101F  346E               	retlw	110	;'n'
   578  1020  3465               	retlw	101	;'e'
   579  1021  3400               	retlw	0
   580  1022                     STR_29:
   581  1022  3457               	retlw	87	;'W'
   582  1023  3461               	retlw	97	;'a'
   583  1024  3473               	retlw	115	;'s'
   584  1025  3468               	retlw	104	;'h'
   585  1026  3469               	retlw	105	;'i'
   586  1027  346E               	retlw	110	;'n'
   587  1028  3467               	retlw	103	;'g'
   588  1029  3420               	retlw	32	;' '
   589  102A  3450               	retlw	80	;'P'
   590  102B  3472               	retlw	114	;'r'
   591  102C  346F               	retlw	111	;'o'
   592  102D  3467               	retlw	103	;'g'
   593  102E  3472               	retlw	114	;'r'
   594  102F  3461               	retlw	97	;'a'
   595  1030  346D               	retlw	109	;'m'
   596  1031  3473               	retlw	115	;'s'
   597  1032  3400               	retlw	0
   598  1033                     STR_22:
   599  1033  3457               	retlw	87	;'W'
   600  1034  3461               	retlw	97	;'a'
   601  1035  3473               	retlw	115	;'s'
   602  1036  3468               	retlw	104	;'h'
   603  1037  3469               	retlw	105	;'i'
   604  1038  346E               	retlw	110	;'n'
   605  1039  3467               	retlw	103	;'g'
   606  103A  3420               	retlw	32	;' '
   607  103B  344D               	retlw	77	;'M'
   608  103C  3461               	retlw	97	;'a'
   609  103D  3463               	retlw	99	;'c'
   610  103E  3468               	retlw	104	;'h'
   611  103F  3469               	retlw	105	;'i'
   612  1040  346E               	retlw	110	;'n'
   613  1041  3465               	retlw	101	;'e'
   614  1042  3400               	retlw	0
   615  1043                     STR_18:
   616  1043  3420               	retlw	32	;' '
   617  1044  3450               	retlw	80	;'P'
   618  1045  3472               	retlw	114	;'r'
   619  1046  3465               	retlw	101	;'e'
   620  1047  3473               	retlw	115	;'s'
   621  1048  3473               	retlw	115	;'s'
   622  1049  3420               	retlw	32	;' '
   623  104A  344B               	retlw	75	;'K'
   624  104B  3465               	retlw	101	;'e'
   625  104C  3479               	retlw	121	;'y'
   626  104D  3435               	retlw	53	;'5'
   627  104E  3420               	retlw	32	;' '
   628  104F  3454               	retlw	84	;'T'
   629  1050  346F               	retlw	111	;'o'
   630  1051  3400               	retlw	0
   631  1052                     STR_49:
   632  1052  3420               	retlw	32	;' '
   633  1053  3452               	retlw	82	;'R'
   634  1054  3465               	retlw	101	;'e'
   635  1055  346D               	retlw	109	;'m'
   636  1056  346F               	retlw	111	;'o'
   637  1057  3476               	retlw	118	;'v'
   638  1058  3465               	retlw	101	;'e'
   639  1059  3420               	retlw	32	;' '
   640  105A  3463               	retlw	99	;'c'
   641  105B  346C               	retlw	108	;'l'
   642  105C  346F               	retlw	111	;'o'
   643  105D  3474               	retlw	116	;'t'
   644  105E  3468               	retlw	104	;'h'
   645  105F  3473               	retlw	115	;'s'
   646  1060  3400               	retlw	0
   647  1061                     STR_19:
   648  1061  3420               	retlw	32	;' '
   649  1062  3420               	retlw	32	;' '
   650  1063  3420               	retlw	32	;' '
   651  1064  3450               	retlw	80	;'P'
   652  1065  346F               	retlw	111	;'o'
   653  1066  3477               	retlw	119	;'w'
   654  1067  3465               	retlw	101	;'e'
   655  1068  3472               	retlw	114	;'r'
   656  1069  3420               	retlw	32	;' '
   657  106A  344F               	retlw	79	;'O'
   658  106B  344E               	retlw	78	;'N'
   659  106C  3420               	retlw	32	;' '
   660  106D  3420               	retlw	32	;' '
   661  106E  3400               	retlw	0
   662  106F                     STR_48:
   663  106F  3420               	retlw	32	;' '
   664  1070  3420               	retlw	32	;' '
   665  1071  3443               	retlw	67	;'C'
   666  1072  346F               	retlw	111	;'o'
   667  1073  346D               	retlw	109	;'m'
   668  1074  3470               	retlw	112	;'p'
   669  1075  346C               	retlw	108	;'l'
   670  1076  3465               	retlw	101	;'e'
   671  1077  3474               	retlw	116	;'t'
   672  1078  3465               	retlw	101	;'e'
   673  1079  3464               	retlw	100	;'d'
   674  107A  3420               	retlw	32	;' '
   675  107B  3420               	retlw	32	;' '
   676  107C  3400               	retlw	0
   677  107D                     STR_25:
   678  107D  3450               	retlw	80	;'P'
   679  107E  3472               	retlw	114	;'r'
   680  107F  3465               	retlw	101	;'e'
   681  1080  3473               	retlw	115	;'s'
   682  1081  3473               	retlw	115	;'s'
   683  1082  3420               	retlw	32	;' '
   684  1083  3453               	retlw	83	;'S'
   685  1084  3477               	retlw	119	;'w'
   686  1085  3469               	retlw	105	;'i'
   687  1086  3474               	retlw	116	;'t'
   688  1087  3463               	retlw	99	;'c'
   689  1088  3468               	retlw	104	;'h'
   690  1089  343A               	retlw	58	;':'
   691  108A  3400               	retlw	0
   692  108B                     STR_31:
   693  108B  3420               	retlw	32	;' '
   694  108C  3450               	retlw	80	;'P'
   695  108D  346C               	retlw	108	;'l'
   696  108E  3465               	retlw	101	;'e'
   697  108F  3461               	retlw	97	;'a'
   698  1090  3473               	retlw	115	;'s'
   699  1091  3465               	retlw	101	;'e'
   700  1092  3420               	retlw	32	;' '
   701  1093  3463               	retlw	99	;'c'
   702  1094  346C               	retlw	108	;'l'
   703  1095  346F               	retlw	111	;'o'
   704  1096  3473               	retlw	115	;'s'
   705  1097  3465               	retlw	101	;'e'
   706  1098  3400               	retlw	0
   707  1099                     STR_21:
   708  1099  3420               	retlw	32	;' '
   709  109A  3420               	retlw	32	;' '
   710  109B  3450               	retlw	80	;'P'
   711  109C  346F               	retlw	111	;'o'
   712  109D  3477               	retlw	119	;'w'
   713  109E  3465               	retlw	101	;'e'
   714  109F  3472               	retlw	114	;'r'
   715  10A0  3469               	retlw	105	;'i'
   716  10A1  346E               	retlw	110	;'n'
   717  10A2  3467               	retlw	103	;'g'
   718  10A3  3420               	retlw	32	;' '
   719  10A4  344F               	retlw	79	;'O'
   720  10A5  346E               	retlw	110	;'n'
   721  10A6  3400               	retlw	0
   722  10A7                     STR_38:
   723  10A7  3420               	retlw	32	;' '
   724  10A8  3446               	retlw	70	;'F'
   725  10A9  3475               	retlw	117	;'u'
   726  10AA  346E               	retlw	110	;'n'
   727  10AB  3463               	retlw	99	;'c'
   728  10AC  3474               	retlw	116	;'t'
   729  10AD  3469               	retlw	105	;'i'
   730  10AE  346F               	retlw	111	;'o'
   731  10AF  346E               	retlw	110	;'n'
   732  10B0  3420               	retlw	32	;' '
   733  10B1  342D               	retlw	45	;'-'
   734  10B2  3420               	retlw	32	;' '
   735  10B3  3400               	retlw	0
   736  10B4                     STR_24:
   737  10B4  3420               	retlw	32	;' '
   738  10B5  3420               	retlw	32	;' '
   739  10B6  3420               	retlw	32	;' '
   740  10B7  3420               	retlw	32	;' '
   741  10B8  3443               	retlw	67	;'C'
   742  10B9  346F               	retlw	111	;'o'
   743  10BA  346D               	retlw	109	;'m'
   744  10BB  3470               	retlw	112	;'p'
   745  10BC  3461               	retlw	97	;'a'
   746  10BD  346E               	retlw	110	;'n'
   747  10BE  3479               	retlw	121	;'y'
   748  10BF  3420               	retlw	32	;' '
   749  10C0  3400               	retlw	0
   750  10C1                     STR_30:
   751  10C1  3420               	retlw	32	;' '
   752  10C2  3444               	retlw	68	;'D'
   753  10C3  344F               	retlw	79	;'O'
   754  10C4  344F               	retlw	79	;'O'
   755  10C5  3452               	retlw	82	;'R'
   756  10C6  3420               	retlw	32	;' '
   757  10C7  343A               	retlw	58	;':'
   758  10C8  3420               	retlw	32	;' '
   759  10C9  344F               	retlw	79	;'O'
   760  10CA  3450               	retlw	80	;'P'
   761  10CB  3445               	retlw	69	;'E'
   762  10CC  344E               	retlw	78	;'N'
   763  10CD  3400               	retlw	0
   764  10CE                     STR_32:
   765  10CE  3420               	retlw	32	;' '
   766  10CF  3446               	retlw	70	;'F'
   767  10D0  3475               	retlw	117	;'u'
   768  10D1  346E               	retlw	110	;'n'
   769  10D2  3463               	retlw	99	;'c'
   770  10D3  3474               	retlw	116	;'t'
   771  10D4  3469               	retlw	105	;'i'
   772  10D5  346F               	retlw	111	;'o'
   773  10D6  346E               	retlw	110	;'n'
   774  10D7  343A               	retlw	58	;':'
   775  10D8  3420               	retlw	32	;' '
   776  10D9  3400               	retlw	0
   777  10DA                     STR_28:
   778  10DA  3457               	retlw	87	;'W'
   779  10DB  3441               	retlw	65	;'A'
   780  10DC  3454               	retlw	84	;'T'
   781  10DD  3445               	retlw	69	;'E'
   782  10DE  3452               	retlw	82	;'R'
   783  10DF  3420               	retlw	32	;' '
   784  10E0  344C               	retlw	76	;'L'
   785  10E1  3445               	retlw	69	;'E'
   786  10E2  3456               	retlw	86	;'V'
   787  10E3  3445               	retlw	69	;'E'
   788  10E4  344C               	retlw	76	;'L'
   789  10E5  3400               	retlw	0
   790  10E6                     STR_26:
   791  10E6  3420               	retlw	32	;' '
   792  10E7  3453               	retlw	83	;'S'
   793  10E8  3457               	retlw	87	;'W'
   794  10E9  3435               	retlw	53	;'5'
   795  10EA  343A               	retlw	58	;':'
   796  10EB  3453               	retlw	83	;'S'
   797  10EC  3454               	retlw	84	;'T'
   798  10ED  3441               	retlw	65	;'A'
   799  10EE  3452               	retlw	82	;'R'
   800  10EF  3454               	retlw	84	;'T'
   801  10F0  3400               	retlw	0
   802  10F1                     STR_12:
   803  10F1  3441               	retlw	65	;'A'
   804  10F2  3471               	retlw	113	;'q'
   805  10F3  3475               	retlw	117	;'u'
   806  10F4  3461               	retlw	97	;'a'
   807  10F5  3420               	retlw	32	;' '
   808  10F6  3453               	retlw	83	;'S'
   809  10F7  3474               	retlw	116	;'t'
   810  10F8  346F               	retlw	111	;'o'
   811  10F9  3472               	retlw	114	;'r'
   812  10FA  3465               	retlw	101	;'e'
   813  10FB  3400               	retlw	0
   814  10FC                     STR_23:
   815  10FC  3420               	retlw	32	;' '
   816  10FD  3420               	retlw	32	;' '
   817  10FE  3420               	retlw	32	;' '
   818  10FF  3420               	retlw	32	;' '
   819  1100  3420               	retlw	32	;' '
   820  1101  344C               	retlw	76	;'L'
   821  1102  344F               	retlw	79	;'O'
   822  1103  344F               	retlw	79	;'O'
   823  1104  3450               	retlw	80	;'P'
   824  1105  3400               	retlw	0
   825  1106                     STR_27:
   826  1106  3420               	retlw	32	;' '
   827  1107  3453               	retlw	83	;'S'
   828  1108  3457               	retlw	87	;'W'
   829  1109  3436               	retlw	54	;'6'
   830  110A  343A               	retlw	58	;':'
   831  110B  3453               	retlw	83	;'S'
   832  110C  3454               	retlw	84	;'T'
   833  110D  344F               	retlw	79	;'O'
   834  110E  3450               	retlw	80	;'P'
   835  110F  3400               	retlw	0
   836  1110                     STR_17:
   837  1110  3456               	retlw	86	;'V'
   838  1111  3465               	retlw	101	;'e'
   839  1112  3472               	retlw	114	;'r'
   840  1113  3479               	retlw	121	;'y'
   841  1114  3420               	retlw	32	;' '
   842  1115  3468               	retlw	104	;'h'
   843  1116  3469               	retlw	105	;'i'
   844  1117  3467               	retlw	103	;'g'
   845  1118  3468               	retlw	104	;'h'
   846  1119  3400               	retlw	0
   847  111A                     STR_5:
   848  111A  3453               	retlw	83	;'S'
   849  111B  3474               	retlw	116	;'t'
   850  111C  3461               	retlw	97	;'a'
   851  111D  3469               	retlw	105	;'i'
   852  111E  346E               	retlw	110	;'n'
   853  111F  3457               	retlw	87	;'W'
   854  1120  3461               	retlw	97	;'a'
   855  1121  3473               	retlw	115	;'s'
   856  1122  3468               	retlw	104	;'h'
   857  1123  3400               	retlw	0
   858  1124                     STR_6:
   859  1124  3445               	retlw	69	;'E'
   860  1125  3463               	retlw	99	;'c'
   861  1126  346F               	retlw	111	;'o'
   862  1127  3443               	retlw	67	;'C'
   863  1128  346F               	retlw	111	;'o'
   864  1129  3474               	retlw	116	;'t'
   865  112A  3474               	retlw	116	;'t'
   866  112B  346F               	retlw	111	;'o'
   867  112C  346E               	retlw	110	;'n'
   868  112D  3400               	retlw	0
   869  112E                     STR_8:
   870  112E  3442               	retlw	66	;'B'
   871  112F  3465               	retlw	101	;'e'
   872  1130  3464               	retlw	100	;'d'
   873  1131  3453               	retlw	83	;'S'
   874  1132  3468               	retlw	104	;'h'
   875  1133  3465               	retlw	101	;'e'
   876  1134  3465               	retlw	101	;'e'
   877  1135  3474               	retlw	116	;'t'
   878  1136  3473               	retlw	115	;'s'
   879  1137  3400               	retlw	0
   880  1138                     STR_11:
   881  1138  3457               	retlw	87	;'W'
   882  1139  3461               	retlw	97	;'a'
   883  113A  3473               	retlw	115	;'s'
   884  113B  3468               	retlw	104	;'h'
   885  113C  3420               	retlw	32	;' '
   886  113D  344F               	retlw	79	;'O'
   887  113E  346E               	retlw	110	;'n'
   888  113F  346C               	retlw	108	;'l'
   889  1140  3479               	retlw	121	;'y'
   890  1141  3400               	retlw	0
   891  1142                     STR_9:
   892  1142  3452               	retlw	82	;'R'
   893  1143  3469               	retlw	105	;'i'
   894  1144  346E               	retlw	110	;'n'
   895  1145  3473               	retlw	115	;'s'
   896  1146  3465               	retlw	101	;'e'
   897  1147  342B               	retlw	43	;'+'
   898  1148  3444               	retlw	68	;'D'
   899  1149  3472               	retlw	114	;'r'
   900  114A  3479               	retlw	121	;'y'
   901  114B  3400               	retlw	0
   902  114C                     STR_39:
   903  114C  3420               	retlw	32	;' '
   904  114D  3454               	retlw	84	;'T'
   905  114E  3449               	retlw	73	;'I'
   906  114F  344D               	retlw	77	;'M'
   907  1150  3445               	retlw	69	;'E'
   908  1151  343A               	retlw	58	;':'
   909  1152  3420               	retlw	32	;' '
   910  1153  3420               	retlw	32	;' '
   911  1154  3400               	retlw	0
   912  1155                     STR_33:
   913  1155  3420               	retlw	32	;' '
   914  1156  3454               	retlw	84	;'T'
   915  1157  3469               	retlw	105	;'i'
   916  1158  346D               	retlw	109	;'m'
   917  1159  3465               	retlw	101	;'e'
   918  115A  343A               	retlw	58	;':'
   919  115B  3420               	retlw	32	;' '
   920  115C  3420               	retlw	32	;' '
   921  115D  3400               	retlw	0
   922  115E                     STR_3:
   923  115E  3444               	retlw	68	;'D'
   924  115F  3465               	retlw	101	;'e'
   925  1160  346C               	retlw	108	;'l'
   926  1161  3469               	retlw	105	;'i'
   927  1162  3463               	retlw	99	;'c'
   928  1163  3461               	retlw	97	;'a'
   929  1164  3474               	retlw	116	;'t'
   930  1165  3465               	retlw	101	;'e'
   931  1166  3400               	retlw	0
   932  1167                     STR_10:
   933  1167  3444               	retlw	68	;'D'
   934  1168  3472               	retlw	114	;'r'
   935  1169  3479               	retlw	121	;'y'
   936  116A  3420               	retlw	32	;' '
   937  116B  344F               	retlw	79	;'O'
   938  116C  346E               	retlw	110	;'n'
   939  116D  346C               	retlw	108	;'l'
   940  116E  3479               	retlw	121	;'y'
   941  116F  3400               	retlw	0
   942  1170                     STR_37:
   943  1170  3428               	retlw	40	;'('
   944  1171  344D               	retlw	77	;'M'
   945  1172  344D               	retlw	77	;'M'
   946  1173  343A               	retlw	58	;':'
   947  1174  3453               	retlw	83	;'S'
   948  1175  3453               	retlw	83	;'S'
   949  1176  3429               	retlw	41	;')'
   950  1177  3400               	retlw	0
   951  1178                     STR_7:
   952  1178  3457               	retlw	87	;'W'
   953  1179  346F               	retlw	111	;'o'
   954  117A  346F               	retlw	111	;'o'
   955  117B  346C               	retlw	108	;'l'
   956  117C  346C               	retlw	108	;'l'
   957  117D  3465               	retlw	101	;'e'
   958  117E  346E               	retlw	110	;'n'
   959  117F  3400               	retlw	0
   960  1180                     STR_46:
   961  1180  3452               	retlw	82	;'R'
   962  1181  3469               	retlw	105	;'i'
   963  1182  346E               	retlw	110	;'n'
   964  1183  3473               	retlw	115	;'s'
   965  1184  3465               	retlw	101	;'e'
   966  1185  3420               	retlw	32	;' '
   967  1186  3400               	retlw	0
   968  1187                     STR_15:
   969  1187  344D               	retlw	77	;'M'
   970  1188  3465               	retlw	101	;'e'
   971  1189  3464               	retlw	100	;'d'
   972  118A  3469               	retlw	105	;'i'
   973  118B  3475               	retlw	117	;'u'
   974  118C  346D               	retlw	109	;'m'
   975  118D  3400               	retlw	0
   976  118E                     STR_43:
   977  118E  3453               	retlw	83	;'S'
   978  118F  3470               	retlw	112	;'p'
   979  1190  3469               	retlw	105	;'i'
   980  1191  346E               	retlw	110	;'n'
   981  1192  3420               	retlw	32	;' '
   982  1193  3400               	retlw	0
   983  1194                     STR_36:
   984  1194  3454               	retlw	84	;'T'
   985  1195  3469               	retlw	105	;'i'
   986  1196  346D               	retlw	109	;'m'
   987  1197  3465               	retlw	101	;'e'
   988  1198  343A               	retlw	58	;':'
   989  1199  3400               	retlw	0
   990  119A                     STR_35:
   991  119A  3450               	retlw	80	;'P'
   992  119B  3472               	retlw	114	;'r'
   993  119C  346F               	retlw	111	;'o'
   994  119D  3467               	retlw	103	;'g'
   995  119E  343A               	retlw	58	;':'
   996  119F  3400               	retlw	0
   997  11A0                     STR_42:
   998  11A0  3452               	retlw	82	;'R'
   999  11A1  3469               	retlw	105	;'i'
  1000  11A2  346E               	retlw	110	;'n'
  1001  11A3  3473               	retlw	115	;'s'
  1002  11A4  3465               	retlw	101	;'e'
  1003  11A5  3400               	retlw	0
  1004  11A6                     STR_4:
  1005  11A6  3457               	retlw	87	;'W'
  1006  11A7  3468               	retlw	104	;'h'
  1007  11A8  3469               	retlw	105	;'i'
  1008  11A9  3474               	retlw	116	;'t'
  1009  11AA  3465               	retlw	101	;'e'
  1010  11AB  3400               	retlw	0
  1011  11AC                     STR_1:
  1012  11AC  3444               	retlw	68	;'D'
  1013  11AD  3461               	retlw	97	;'a'
  1014  11AE  3469               	retlw	105	;'i'
  1015  11AF  346C               	retlw	108	;'l'
  1016  11B0  3479               	retlw	121	;'y'
  1017  11B1  3400               	retlw	0
  1018  11B2                     STR_2:
  1019  11B2  3448               	retlw	72	;'H'
  1020  11B3  3465               	retlw	101	;'e'
  1021  11B4  3461               	retlw	97	;'a'
  1022  11B5  3476               	retlw	118	;'v'
  1023  11B6  3479               	retlw	121	;'y'
  1024  11B7  3400               	retlw	0
  1025  11B8                     STR_16:
  1026  11B8  3448               	retlw	72	;'H'
  1027  11B9  3469               	retlw	105	;'i'
  1028  11BA  3467               	retlw	103	;'g'
  1029  11BB  3468               	retlw	104	;'h'
  1030  11BC  3400               	retlw	0
  1031  11BD                     STR_13:
  1032  11BD  3441               	retlw	65	;'A'
  1033  11BE  3475               	retlw	117	;'u'
  1034  11BF  3474               	retlw	116	;'t'
  1035  11C0  346F               	retlw	111	;'o'
  1036  11C1  3400               	retlw	0
  1037  11C2                     STR_14:
  1038  11C2  344C               	retlw	76	;'L'
  1039  11C3  346F               	retlw	111	;'o'
  1040  11C4  3477               	retlw	119	;'w'
  1041  11C5  3400               	retlw	0
  1042  118E                     
  1043                           	psect	cinit
  1044  000F                     start_initialization:	
  1045                           ; #config settings
  1046                           
  1047  000F                     __initialization:
  1048                           
  1049                           ; Initialize objects allocated to BANK1
  1050  000F  1383               	bcf	3,7	;select IRP bank0
  1051  0010  30C2               	movlw	low (__pdataBANK1+34)
  1052  0011  00FD               	movwf	btemp+-1
  1053  0012  3013               	movlw	high __pidataBANK1
  1054  0013  00FE               	movwf	btemp
  1055  0014  3071               	movlw	low __pidataBANK1
  1056  0015  00FF               	movwf	btemp+1
  1057  0016  30A0               	movlw	low __pdataBANK1
  1058  0017  0084               	movwf	4
  1059  0018  160A  118A  232C  120A  118A  	fcall	init_ram0
  1060                           
  1061                           ; Initialize objects allocated to BANK0
  1062  001D  120A  118A  27FE  120A  118A  	fcall	__pidataBANK0	;fetch initializer
  1063  0022  00EF               	movwf	__pdataBANK0& (0+127)
  1064                           
  1065                           ; Clear objects allocated to BANK1
  1066  0023  1683               	bsf	3,5	;RP0=1, select bank1
  1067  0024  1303               	bcf	3,6	;RP1=0, select bank1
  1068  0025  01C2               	clrf	__pbssBANK1& (0+127)
  1069  0026  01C3               	clrf	(__pbssBANK1+1)& (0+127)
  1070  0027  01C4               	clrf	(__pbssBANK1+2)& (0+127)
  1071  0028  01C5               	clrf	(__pbssBANK1+3)& (0+127)
  1072                           
  1073                           ; Clear objects allocated to BANK0
  1074  0029  1283               	bcf	3,5	;RP0=0, select bank0
  1075  002A  1303               	bcf	3,6	;RP1=0, select bank0
  1076  002B  01E2               	clrf	__pbssBANK0& (0+127)
  1077  002C  01E3               	clrf	(__pbssBANK0+1)& (0+127)
  1078  002D  01E4               	clrf	(__pbssBANK0+2)& (0+127)
  1079  002E  01E5               	clrf	(__pbssBANK0+3)& (0+127)
  1080  002F  01E6               	clrf	(__pbssBANK0+4)& (0+127)
  1081  0030  01E7               	clrf	(__pbssBANK0+5)& (0+127)
  1082  0031  01E8               	clrf	(__pbssBANK0+6)& (0+127)
  1083  0032  01E9               	clrf	(__pbssBANK0+7)& (0+127)
  1084  0033  01EA               	clrf	(__pbssBANK0+8)& (0+127)
  1085  0034  01EB               	clrf	(__pbssBANK0+9)& (0+127)
  1086  0035  01EC               	clrf	(__pbssBANK0+10)& (0+127)
  1087  0036  01ED               	clrf	(__pbssBANK0+11)& (0+127)
  1088  0037  01EE               	clrf	(__pbssBANK0+12)& (0+127)
  1089                           
  1090                           ; Clear objects allocated to COMMON
  1091  0038  01F8               	clrf	__pbssCOMMON& (0+127)
  1092  0039  01F9               	clrf	(__pbssCOMMON+1)& (0+127)
  1093  003A  01FA               	clrf	(__pbssCOMMON+2)& (0+127)
  1094  003B                     end_of_initialization:	
  1095                           ;End of C runtime variable initialization code
  1096                           
  1097  003B                     __end_of__initialization:
  1098  003B  0183               	clrf	3
  1099  003C  120A  158A  28D1   	ljmp	_main	;jump to C main() function
  1100                           
  1101                           	psect	bssCOMMON
  1102  0078                     __pbssCOMMON:
  1103  0078                     _sec:
  1104  0078                     	ds	1
  1105  0079                     _level_no:
  1106  0079                     	ds	1
  1107  007A                     _program_no:
  1108  007A                     	ds	1
  1109                           
  1110                           	psect	bssBANK0
  1111  0062                     __pbssBANK0:
  1112  0062                     _time:
  1113  0062                     	ds	2
  1114  0064                     _total_time:
  1115  0064                     	ds	2
  1116  0066                     _rinse_time:
  1117  0066                     	ds	2
  1118  0068                     _wash_time:
  1119  0068                     	ds	2
  1120  006A                     read_digital_keypad@longpress:
  1121  006A                     	ds	1
  1122  006B                     read_digital_keypad@pre_key:
  1123  006B                     	ds	1
  1124  006C                     _min:
  1125  006C                     	ds	1
  1126  006D                     _operation_mode:
  1127  006D                     	ds	1
  1128  006E                     _reset_mode:
  1129  006E                     	ds	1
  1130                           
  1131                           	psect	dataBANK0
  1132  006F                     __pdataBANK0:
  1133  006F                     read_digital_keypad@once:
  1134  006F                     	ds	1
  1135                           
  1136                           	psect	bssBANK1
  1137  00C2                     __pbssBANK1:
  1138  00C2                     isr@count:
  1139  00C2                     	ds	2
  1140  00C4                     _spin_time:
  1141  00C4                     	ds	2
  1142                           
  1143                           	psect	dataBANK1
  1144  00A0                     __pdataBANK1:
  1145  00A0                     _washing_prog:
  1146  00A0                     	ds	24
  1147  00B8                     _water_levels:
  1148  00B8                     	ds	10
  1149                           
  1150                           	psect	inittext
  1151  1328                     init_fetch0:	
  1152                           ;	Called with low address in FSR and high address in W
  1153                           
  1154  1328  087E               	movf	btemp,w
  1155  1329  008A               	movwf	10
  1156  132A  087F               	movf	btemp+1,w
  1157  132B  0082               	movwf	2
  1158  132C                     init_ram0:	
  1159                           ;Called with:
  1160                           ;	high address of idata address in btemp 
  1161                           ;	low address of idata address in btemp+1 
  1162                           ;	low address of data in FSR
  1163                           ;	high address + 1 of data in btemp-1
  1164                           
  1165  132C  160A  118A  2328  160A  118A  	fcall	init_fetch0
  1166  1331  0080               	movwf	0
  1167  1332  0A84               	incf	4,f
  1168  1333  0804               	movf	4,w
  1169  1334  067D               	xorwf	btemp+-1,w
  1170  1335  1903               	btfsc	3,2
  1171  1336  3400               	retlw	0
  1172  1337  0AFF               	incf	btemp+1,f
  1173  1338  1903               	btfsc	3,2
  1174  1339  0AFE               	incf	btemp,f
  1175  133A  2B2C               	goto	init_ram0
  1176                           
  1177                           	psect	cstackBANK1
  1178  00C6                     __pcstackBANK1:
  1179  00C6                     main@flag:
  1180                           
  1181                           ; 2 bytes @ 0x0
  1182  00C6                     	ds	2
  1183  00C8                     main@key:
  1184                           
  1185                           ; 1 bytes @ 0x2
  1186  00C8                     	ds	1
  1187                           
  1188                           	psect	cstackCOMMON
  1189  0070                     __pcstackCOMMON:
  1190  0070                     ?_init_clcd:
  1191  0070                     ?_init_digital_keypad:	
  1192                           ; 1 bytes @ 0x0
  1193                           
  1194  0070                     ?_init_timer2:	
  1195                           ; 1 bytes @ 0x0
  1196                           
  1197  0070                     ?_read_digital_keypad:	
  1198                           ; 1 bytes @ 0x0
  1199                           
  1200  0070                     ?_clear_scr:	
  1201                           ; 1 bytes @ 0x0
  1202                           
  1203  0070                     ?_power_on:	
  1204                           ; 1 bytes @ 0x0
  1205                           
  1206  0070                     ?_washing_program_display:	
  1207                           ; 1 bytes @ 0x0
  1208                           
  1209  0070                     ?_wash_level_display:	
  1210                           ; 1 bytes @ 0x0
  1211                           
  1212  0070                     ?_start_stop_display:	
  1213                           ; 1 bytes @ 0x0
  1214                           
  1215  0070                     ?_run_program:	
  1216                           ; 1 bytes @ 0x0
  1217                           
  1218  0070                     ?_set_time_for_program:	
  1219                           ; 1 bytes @ 0x0
  1220                           
  1221  0070                     ?_init_config:	
  1222                           ; 1 bytes @ 0x0
  1223                           
  1224  0070                     ?_main:	
  1225                           ; 1 bytes @ 0x0
  1226                           
  1227  0070                     ?_door_open:	
  1228                           ; 1 bytes @ 0x0
  1229                           
  1230  0070                     ?_init_display_controller:	
  1231                           ; 1 bytes @ 0x0
  1232                           
  1233  0070                     ?_isr:	
  1234                           ; 1 bytes @ 0x0
  1235                           
  1236  0070                     ??_isr:	
  1237                           ; 1 bytes @ 0x0
  1238                           
  1239                           
  1240                           ; 1 bytes @ 0x0
  1241  0070                     	ds	3
  1242  0073                     ??_init_digital_keypad:
  1243  0073                     ??_init_timer2:	
  1244                           ; 1 bytes @ 0x3
  1245                           
  1246  0073                     ??_read_digital_keypad:	
  1247                           ; 1 bytes @ 0x3
  1248                           
  1249  0073                     ?_clcd_write:	
  1250                           ; 1 bytes @ 0x3
  1251                           
  1252  0073                     ??_set_time_for_program:	
  1253                           ; 1 bytes @ 0x3
  1254                           
  1255  0073                     ?__Umul8_16:	
  1256                           ; 1 bytes @ 0x3
  1257                           
  1258  0073                     ?___wmul:	
  1259                           ; 2 bytes @ 0x3
  1260                           
  1261  0073                     ?___awdiv:	
  1262                           ; 2 bytes @ 0x3
  1263                           
  1264  0073                     ?___awmod:	
  1265                           ; 2 bytes @ 0x3
  1266                           
  1267  0073                     ?___xxtofl:	
  1268                           ; 2 bytes @ 0x3
  1269                           
  1270  0073                     clcd_write@mode:	
  1271                           ; 4 bytes @ 0x3
  1272                           
  1273  0073                     ___fladd@signs:	
  1274                           ; 1 bytes @ 0x3
  1275                           
  1276  0073                     __Umul8_16@multiplicand:	
  1277                           ; 1 bytes @ 0x3
  1278                           
  1279  0073                     ___wmul@multiplier:	
  1280                           ; 1 bytes @ 0x3
  1281                           
  1282  0073                     ___awdiv@divisor:	
  1283                           ; 2 bytes @ 0x3
  1284                           
  1285  0073                     ___awmod@divisor:	
  1286                           ; 2 bytes @ 0x3
  1287                           
  1288  0073                     ___xxtofl@val:	
  1289                           ; 2 bytes @ 0x3
  1290                           
  1291                           
  1292                           ; 4 bytes @ 0x3
  1293  0073                     	ds	1
  1294  0074                     ??_clcd_write:
  1295  0074                     read_digital_keypad@mode:	
  1296                           ; 1 bytes @ 0x4
  1297                           
  1298  0074                     ___fladd@aexp:	
  1299                           ; 1 bytes @ 0x4
  1300                           
  1301                           
  1302                           ; 1 bytes @ 0x4
  1303  0074                     	ds	1
  1304  0075                     ??__Umul8_16:
  1305  0075                     ___fladd@bexp:	
  1306                           ; 1 bytes @ 0x5
  1307                           
  1308  0075                     ___wmul@multiplicand:	
  1309                           ; 1 bytes @ 0x5
  1310                           
  1311  0075                     ___awdiv@dividend:	
  1312                           ; 2 bytes @ 0x5
  1313                           
  1314  0075                     ___awmod@dividend:	
  1315                           ; 2 bytes @ 0x5
  1316                           
  1317                           
  1318                           ; 2 bytes @ 0x5
  1319  0075                     	ds	1
  1320  0076                     clcd_write@byte:
  1321  0076                     ___fladd@grs:	
  1322                           ; 1 bytes @ 0x6
  1323                           
  1324                           
  1325                           ; 1 bytes @ 0x6
  1326  0076                     	ds	1
  1327  0077                     ??_init_clcd:
  1328  0077                     ??_clcd_print:	
  1329                           ; 1 bytes @ 0x7
  1330                           
  1331  0077                     ??_clear_scr:	
  1332                           ; 1 bytes @ 0x7
  1333                           
  1334  0077                     ??_init_config:	
  1335                           ; 1 bytes @ 0x7
  1336                           
  1337  0077                     ??___wmul:	
  1338                           ; 1 bytes @ 0x7
  1339                           
  1340  0077                     ??___awdiv:	
  1341                           ; 1 bytes @ 0x7
  1342                           
  1343  0077                     ??___awmod:	
  1344                           ; 1 bytes @ 0x7
  1345                           
  1346  0077                     ??___flsub:	
  1347                           ; 1 bytes @ 0x7
  1348                           
  1349                           
  1350                           ; 1 bytes @ 0x7
  1351  0077                     	ds	1
  1352  0078                     ??_clcd_putch:
  1353                           
  1354                           	psect	cstackBANK0
  1355  0020                     __pcstackBANK0:	
  1356                           ; 1 bytes @ 0x8
  1357                           
  1358  0020                     ?_clcd_print:
  1359  0020                     ??_init_display_controller:	
  1360                           ; 1 bytes @ 0x0
  1361                           
  1362  0020                     ??___xxtofl:	
  1363                           ; 1 bytes @ 0x0
  1364                           
  1365  0020                     ?___fladd:	
  1366                           ; 1 bytes @ 0x0
  1367                           
  1368  0020                     ___awdiv@counter:	
  1369                           ; 4 bytes @ 0x0
  1370                           
  1371  0020                     ___awmod@counter:	
  1372                           ; 1 bytes @ 0x0
  1373                           
  1374  0020                     clcd_print@str:	
  1375                           ; 1 bytes @ 0x0
  1376                           
  1377  0020                     ___wmul@product:	
  1378                           ; 2 bytes @ 0x0
  1379                           
  1380  0020                     __Umul8_16@product:	
  1381                           ; 2 bytes @ 0x0
  1382                           
  1383  0020                     ___fladd@b:	
  1384                           ; 2 bytes @ 0x0
  1385                           
  1386                           
  1387                           ; 4 bytes @ 0x0
  1388  0020                     	ds	1
  1389  0021                     ___awdiv@sign:
  1390  0021                     ___awmod@sign:	
  1391                           ; 1 bytes @ 0x1
  1392                           
  1393                           
  1394                           ; 1 bytes @ 0x1
  1395  0021                     	ds	1
  1396  0022                     clcd_print@addr:
  1397  0022                     ___awdiv@quotient:	
  1398                           ; 1 bytes @ 0x2
  1399                           
  1400  0022                     __Umul8_16@word_mpld:	
  1401                           ; 2 bytes @ 0x2
  1402                           
  1403                           
  1404                           ; 2 bytes @ 0x2
  1405  0022                     	ds	1
  1406  0023                     ??_start_stop_display:
  1407  0023                     ??_door_open:	
  1408                           ; 1 bytes @ 0x3
  1409                           
  1410                           
  1411                           ; 1 bytes @ 0x3
  1412  0023                     	ds	1
  1413  0024                     ?_clcd_putch:
  1414  0024                     start_stop_display@key:	
  1415                           ; 1 bytes @ 0x4
  1416                           
  1417  0024                     clcd_putch@addr:	
  1418                           ; 1 bytes @ 0x4
  1419                           
  1420  0024                     __Umul8_16@multiplier:	
  1421                           ; 1 bytes @ 0x4
  1422                           
  1423  0024                     ___xxtofl@sign:	
  1424                           ; 1 bytes @ 0x4
  1425                           
  1426  0024                     ___fladd@a:	
  1427                           ; 1 bytes @ 0x4
  1428                           
  1429                           
  1430                           ; 4 bytes @ 0x4
  1431  0024                     	ds	1
  1432  0025                     clcd_putch@data:
  1433  0025                     ___xxtofl@exp:	
  1434                           ; 1 bytes @ 0x5
  1435                           
  1436                           
  1437                           ; 1 bytes @ 0x5
  1438  0025                     	ds	1
  1439  0026                     ??_power_on:
  1440  0026                     ??_washing_program_display:	
  1441                           ; 1 bytes @ 0x6
  1442                           
  1443  0026                     ??_wash_level_display:	
  1444                           ; 1 bytes @ 0x6
  1445                           
  1446  0026                     ___xxtofl@arg:	
  1447                           ; 1 bytes @ 0x6
  1448                           
  1449                           
  1450                           ; 4 bytes @ 0x6
  1451  0026                     	ds	2
  1452  0028                     ??___fladd:
  1453                           
  1454                           ; 1 bytes @ 0x8
  1455  0028                     	ds	1
  1456  0029                     power_on@i:
  1457  0029                     wash_level_display@key:	
  1458                           ; 1 bytes @ 0x9
  1459                           
  1460  0029                     washing_program_display@key:	
  1461                           ; 1 bytes @ 0x9
  1462                           
  1463                           
  1464                           ; 1 bytes @ 0x9
  1465  0029                     	ds	1
  1466  002A                     ?___flmul:
  1467  002A                     ___flmul@b:	
  1468                           ; 4 bytes @ 0xA
  1469                           
  1470                           
  1471                           ; 4 bytes @ 0xA
  1472  002A                     	ds	4
  1473  002E                     ___flmul@a:
  1474                           
  1475                           ; 4 bytes @ 0xE
  1476  002E                     	ds	4
  1477  0032                     ??___flmul:
  1478                           
  1479                           ; 1 bytes @ 0x12
  1480  0032                     	ds	5
  1481  0037                     ___flmul@sign:
  1482                           
  1483                           ; 1 bytes @ 0x17
  1484  0037                     	ds	1
  1485  0038                     ___flmul@aexp:
  1486                           
  1487                           ; 1 bytes @ 0x18
  1488  0038                     	ds	1
  1489  0039                     ___flmul@grs:
  1490                           
  1491                           ; 4 bytes @ 0x19
  1492  0039                     	ds	4
  1493  003D                     ___flmul@bexp:
  1494                           
  1495                           ; 1 bytes @ 0x1D
  1496  003D                     	ds	1
  1497  003E                     ___flmul@prod:
  1498                           
  1499                           ; 4 bytes @ 0x1E
  1500  003E                     	ds	4
  1501  0042                     ___flmul@temp:
  1502                           
  1503                           ; 2 bytes @ 0x22
  1504  0042                     	ds	2
  1505  0044                     ?___fltol:
  1506  0044                     ?___flsub:	
  1507                           ; 4 bytes @ 0x24
  1508                           
  1509  0044                     ___fltol@f1:	
  1510                           ; 4 bytes @ 0x24
  1511                           
  1512  0044                     ___flsub@a:	
  1513                           ; 4 bytes @ 0x24
  1514                           
  1515                           
  1516                           ; 4 bytes @ 0x24
  1517  0044                     	ds	4
  1518  0048                     ??___fltol:
  1519  0048                     ___flsub@b:	
  1520                           ; 1 bytes @ 0x28
  1521                           
  1522                           
  1523                           ; 4 bytes @ 0x28
  1524  0048                     	ds	4
  1525  004C                     ?___flge:
  1526  004C                     ___flge@ff1:	
  1527                           ; 1 bit 
  1528                           
  1529                           
  1530                           ; 4 bytes @ 0x2C
  1531  004C                     	ds	1
  1532  004D                     ___fltol@sign1:
  1533                           
  1534                           ; 1 bytes @ 0x2D
  1535  004D                     	ds	1
  1536  004E                     ___fltol@exp1:
  1537                           
  1538                           ; 1 bytes @ 0x2E
  1539  004E                     	ds	2
  1540  0050                     ___flge@ff2:
  1541                           
  1542                           ; 4 bytes @ 0x30
  1543  0050                     	ds	4
  1544  0054                     ??___flge:
  1545                           
  1546                           ; 1 bytes @ 0x34
  1547  0054                     	ds	4
  1548  0058                     ??_run_program:
  1549                           
  1550                           ; 1 bytes @ 0x38
  1551  0058                     	ds	7
  1552  005F                     run_program@key:
  1553                           
  1554                           ; 1 bytes @ 0x3F
  1555  005F                     	ds	1
  1556  0060                     ??_main:
  1557                           
  1558                           ; 1 bytes @ 0x40
  1559  0060                     	ds	2
  1560                           
  1561                           	psect	maintext
  1562  08D1                     __pmaintext:	
  1563 ;;
  1564 ;;Main: autosize = 0, tempsize = 2, incstack = 0, save=0
  1565 ;;
  1566 ;; *************** function _main *****************
  1567 ;; Defined at:
  1568 ;;		line 49 in file "main.c"
  1569 ;; Parameters:    Size  Location     Type
  1570 ;;		None
  1571 ;; Auto vars:     Size  Location     Type
  1572 ;;  flag            2    0[BANK1 ] int 
  1573 ;;  key             1    2[BANK1 ] unsigned char 
  1574 ;; Return value:  Size  Location     Type
  1575 ;;                  1    wreg      void 
  1576 ;; Registers used:
  1577 ;;		wreg, fsr0l, fsr0h, status,2, status,0, btemp+1, pclath, cstack
  1578 ;; Tracked objects:
  1579 ;;		On entry : B00/0
  1580 ;;		On exit  : 0/0
  1581 ;;		Unchanged: 0/0
  1582 ;; Data sizes:     COMMON   BANK0   BANK1   BANK3   BANK2
  1583 ;;      Params:         0       0       0       0       0
  1584 ;;      Locals:         0       0       3       0       0
  1585 ;;      Temps:          0       2       0       0       0
  1586 ;;      Totals:         0       2       3       0       0
  1587 ;;Total ram usage:        5 bytes
  1588 ;; Hardware stack levels required when called: 5
  1589 ;; This function calls:
  1590 ;;		_clcd_print
  1591 ;;		_clear_scr
  1592 ;;		_init_config
  1593 ;;		_power_on
  1594 ;;		_read_digital_keypad
  1595 ;;		_run_program
  1596 ;;		_start_stop_display
  1597 ;;		_wash_level_display
  1598 ;;		_washing_program_display
  1599 ;; This function is called by:
  1600 ;;		Startup code after reset
  1601 ;; This function uses a non-reentrant model
  1602 ;;
  1603                           
  1604                           
  1605                           ;psect for function _main
  1606  08D1                     _main:
  1607  08D1                     l4595:	
  1608                           ;incstack = 0
  1609                           ; Regs used in _main: [wreg-fsr0h+status,2+status,0+btemp+1+pclath+cstack]
  1610                           
  1611                           
  1612                           ;main.c: 50:        while(read_digital_keypad(1)!=0x2F)
  1613  08D1  160A  118A  233B  120A  158A  	fcall	_init_config
  1614  08D6                     l4597:
  1615                           
  1616                           ;main.c: 51:         {;main.c: 52:             ;
  1617  08D6  1283               	bcf	3,5	;RP0=0, select bank0
  1618  08D7  1303               	bcf	3,6	;RP1=0, select bank0
  1619  08D8  01ED               	clrf	_operation_mode
  1620  08D9  0AED               	incf	_operation_mode,f
  1621  08DA                     l4599:
  1622                           
  1623                           ;main.c: 54:         clear_scr();
  1624  08DA  3001               	movlw	1
  1625  08DB  1683               	bsf	3,5	;RP0=1, select bank1
  1626  08DC  1303               	bcf	3,6	;RP1=0, select bank1
  1627  08DD  00C6               	movwf	main@flag^(0+128)
  1628  08DE  3000               	movlw	0
  1629  08DF  00C7               	movwf	(main@flag^(0+128)+1)
  1630  08E0                     l4601:
  1631                           
  1632                           ;main.c: 57:         while(1)
  1633  08E0  3043               	movlw	low (STR_18| (0+32768))
  1634  08E1  1283               	bcf	3,5	;RP0=0, select bank0
  1635  08E2  1303               	bcf	3,6	;RP1=0, select bank0
  1636  08E3  00A0               	movwf	clcd_print@str
  1637  08E4  3090               	movlw	high (STR_18| (0+32768))
  1638  08E5  00A1               	movwf	clcd_print@str+1
  1639  08E6  3080               	movlw	128
  1640  08E7  00E0               	movwf	??_main
  1641  08E8  0860               	movf	??_main,w
  1642  08E9  00A2               	movwf	clcd_print@addr
  1643  08EA  160A  118A  240B  120A  158A  	fcall	_clcd_print
  1644  08EF                     l4603:
  1645                           
  1646                           ;main.c: 58:         { key=read_digital_keypad(1);
  1647  08EF  3061               	movlw	low (STR_19| (0+32768))
  1648  08F0  1283               	bcf	3,5	;RP0=0, select bank0
  1649  08F1  1303               	bcf	3,6	;RP1=0, select bank0
  1650  08F2  00A0               	movwf	clcd_print@str
  1651  08F3  3090               	movlw	high (STR_19| (0+32768))
  1652  08F4  00A1               	movwf	clcd_print@str+1
  1653  08F5  30C0               	movlw	192
  1654  08F6  00E0               	movwf	??_main
  1655  08F7  0860               	movf	??_main,w
  1656  08F8  00A2               	movwf	clcd_print@addr
  1657  08F9  160A  118A  240B  120A  158A  	fcall	_clcd_print
  1658  08FE                     l4605:
  1659                           
  1660                           ;main.c: 59:             if(key==0xB7 && operation_mode==0x01)
  1661  08FE  3011               	movlw	low (STR_20| (0+32768))
  1662  08FF  1283               	bcf	3,5	;RP0=0, select bank0
  1663  0900  1303               	bcf	3,6	;RP1=0, select bank0
  1664  0901  00A0               	movwf	clcd_print@str
  1665  0902  3090               	movlw	high (STR_20| (0+32768))
  1666  0903  00A1               	movwf	clcd_print@str+1
  1667  0904  3090               	movlw	144
  1668  0905  00E0               	movwf	??_main
  1669  0906  0860               	movf	??_main,w
  1670  0907  00A2               	movwf	clcd_print@addr
  1671  0908  160A  118A  240B  120A  158A  	fcall	_clcd_print
  1672  090D                     l4607:	
  1673                           ;main.c: 62:                 reset_mode=0x11;
  1674                           
  1675                           
  1676                           ;main.c: 62:                 reset_mode=0x11;
  1677  090D  3001               	movlw	1
  1678  090E  120A  118A  279F  120A  158A  	fcall	_read_digital_keypad
  1679  0913  3A2F               	xorlw	47
  1680  0914  1D03               	skipz
  1681  0915  2917               	goto	u5741
  1682  0916  2918               	goto	u5740
  1683  0917                     u5741:
  1684  0917  290D               	goto	l4607
  1685  0918                     u5740:
  1686  0918                     l4609:
  1687                           
  1688                           ;main.c: 66:             {
  1689  0918  160A  118A  231B  120A  158A  	fcall	_clear_scr
  1690  091D                     l4611:
  1691                           
  1692                           ;main.c: 67:                 operation_mode=0x03;
  1693  091D  160A  118A  26CC  120A  158A  	fcall	_power_on
  1694  0922                     l4613:
  1695                           
  1696                           ;main.c: 68:                 reset_mode=0x12;
  1697  0922  3010               	movlw	16
  1698  0923  1283               	bcf	3,5	;RP0=0, select bank0
  1699  0924  1303               	bcf	3,6	;RP1=0, select bank0
  1700  0925  00E0               	movwf	??_main
  1701  0926  0860               	movf	??_main,w
  1702  0927  00EE               	movwf	_reset_mode
  1703  0928                     l4615:
  1704                           
  1705                           ;main.c: 70: 
  1706  0928  3001               	movlw	1
  1707  0929  120A  118A  279F  120A  158A  	fcall	_read_digital_keypad
  1708  092E  1283               	bcf	3,5	;RP0=0, select bank0
  1709  092F  1303               	bcf	3,6	;RP1=0, select bank0
  1710  0930  00E0               	movwf	??_main
  1711  0931  0860               	movf	??_main,w
  1712  0932  1683               	bsf	3,5	;RP0=1, select bank1
  1713  0933  1303               	bcf	3,6	;RP1=0, select bank1
  1714  0934  00C8               	movwf	main@key^(0+128)
  1715  0935                     l4617:
  1716                           
  1717                           ;main.c: 71:             if(key==0x2F && operation_mode==0x05)
  1718  0935  30B7               	movlw	183
  1719  0936  0648               	xorwf	main@key^(0+128),w
  1720  0937  1D03               	btfss	3,2
  1721  0938  293A               	goto	u5751
  1722  0939  293B               	goto	u5750
  1723  093A                     u5751:
  1724  093A  294B               	goto	l4623
  1725  093B                     u5750:
  1726  093B                     l4619:
  1727  093B  1283               	bcf	3,5	;RP0=0, select bank0
  1728  093C  1303               	bcf	3,6	;RP1=0, select bank0
  1729  093D  036D               	decf	_operation_mode,w
  1730  093E  1D03               	btfss	3,2
  1731  093F  2941               	goto	u5761
  1732  0940  2942               	goto	u5760
  1733  0941                     u5761:
  1734  0941  294B               	goto	l4623
  1735  0942                     u5760:
  1736  0942                     l4621:
  1737                           
  1738                           ;main.c: 72:             {;main.c: 73:                 operation_mode=0x04;
  1739  0942  3002               	movlw	2
  1740  0943  00E0               	movwf	??_main
  1741  0944  0860               	movf	??_main,w
  1742  0945  00ED               	movwf	_operation_mode
  1743                           
  1744                           ;main.c: 74:                 TMR2ON=1;
  1745  0946  3011               	movlw	17
  1746  0947  00E0               	movwf	??_main
  1747  0948  0860               	movf	??_main,w
  1748  0949  00EE               	movwf	_reset_mode
  1749                           
  1750                           ;main.c: 75:                 RC2=1;
  1751  094A  2963               	goto	l4629
  1752  094B                     l4623:
  1753  094B  30B7               	movlw	183
  1754  094C  1683               	bsf	3,5	;RP0=1, select bank1
  1755  094D  1303               	bcf	3,6	;RP1=0, select bank1
  1756  094E  0648               	xorwf	main@key^(0+128),w
  1757  094F  1D03               	btfss	3,2
  1758  0950  2952               	goto	u5771
  1759  0951  2953               	goto	u5770
  1760  0952                     u5771:
  1761  0952  2963               	goto	l4629
  1762  0953                     u5770:
  1763  0953                     l4625:
  1764  0953  3002               	movlw	2
  1765  0954  1283               	bcf	3,5	;RP0=0, select bank0
  1766  0955  1303               	bcf	3,6	;RP1=0, select bank0
  1767  0956  066D               	xorwf	_operation_mode,w
  1768  0957  1D03               	btfss	3,2
  1769  0958  295A               	goto	u5781
  1770  0959  295B               	goto	u5780
  1771  095A                     u5781:
  1772  095A  2963               	goto	l4629
  1773  095B                     u5780:
  1774  095B                     l4627:
  1775                           
  1776                           ;main.c: 78:             { case 0x01:;main.c: 79:                     washing_program_di
      +                          splay(key);
  1777  095B  3003               	movlw	3
  1778  095C  00E0               	movwf	??_main
  1779  095D  0860               	movf	??_main,w
  1780  095E  00ED               	movwf	_operation_mode
  1781                           
  1782                           ;main.c: 80:                     break;
  1783  095F  3012               	movlw	18
  1784  0960  00E0               	movwf	??_main
  1785  0961  0860               	movf	??_main,w
  1786  0962  00EE               	movwf	_reset_mode
  1787  0963                     l4629:
  1788                           
  1789                           ;main.c: 83:                     break;
  1790  0963  302F               	movlw	47
  1791  0964  1683               	bsf	3,5	;RP0=1, select bank1
  1792  0965  1303               	bcf	3,6	;RP1=0, select bank1
  1793  0966  0648               	xorwf	main@key^(0+128),w
  1794  0967  1D03               	btfss	3,2
  1795  0968  296A               	goto	u5791
  1796  0969  296B               	goto	u5790
  1797  096A                     u5791:
  1798  096A  29C7               	goto	l4663
  1799  096B                     u5790:
  1800  096B                     l4631:
  1801  096B  3005               	movlw	5
  1802  096C  1283               	bcf	3,5	;RP0=0, select bank0
  1803  096D  1303               	bcf	3,6	;RP1=0, select bank0
  1804  096E  066D               	xorwf	_operation_mode,w
  1805  096F  1D03               	btfss	3,2
  1806  0970  2972               	goto	u5801
  1807  0971  2973               	goto	u5800
  1808  0972                     u5801:
  1809  0972  29C7               	goto	l4663
  1810  0973                     u5800:
  1811  0973                     l4633:
  1812                           
  1813                           ;main.c: 84:                 case 0x03:;main.c: 85:                     operation_mode=s
      +                          tart_stop_display(key);
  1814  0973  3004               	movlw	4
  1815  0974  00E0               	movwf	??_main
  1816  0975  0860               	movf	??_main,w
  1817  0976  00ED               	movwf	_operation_mode
  1818  0977                     l4635:
  1819                           
  1820                           ;main.c: 86:                     if(operation_mode==0x01)
  1821  0977  1512               	bsf	18,2	;volatile
  1822  0978                     l4637:
  1823                           
  1824                           ;main.c: 87:                         reset_mode=0x10;
  1825  0978  1507               	bsf	7,2	;volatile
  1826  0979  29C7               	goto	l4663
  1827  097A                     l4639:
  1828                           
  1829                           ;main.c: 91:                 case 0x04:
  1830  097A  1683               	bsf	3,5	;RP0=1, select bank1
  1831  097B  1303               	bcf	3,6	;RP1=0, select bank1
  1832  097C  0848               	movf	main@key^(0+128),w
  1833  097D  120A  158A  2312  120A  158A  	fcall	_washing_program_display
  1834                           
  1835                           ;main.c: 92:                     if(flag==1)
  1836  0982  29DE               	goto	l4665
  1837  0983                     l4641:
  1838                           
  1839                           ;main.c: 94:                         reset_mode=0x01;
  1840  0983  1683               	bsf	3,5	;RP0=1, select bank1
  1841  0984  1303               	bcf	3,6	;RP1=0, select bank1
  1842  0985  0848               	movf	main@key^(0+128),w
  1843  0986  120A  158A  21E5  120A  158A  	fcall	_wash_level_display
  1844                           
  1845                           ;main.c: 95:                     }
  1846  098B  29DE               	goto	l4665
  1847  098C                     l4643:
  1848                           
  1849                           ;main.c: 97:                     run_program(key);
  1850  098C  1683               	bsf	3,5	;RP0=1, select bank1
  1851  098D  1303               	bcf	3,6	;RP1=0, select bank1
  1852  098E  0848               	movf	main@key^(0+128),w
  1853  098F  160A  118A  24CB  120A  158A  	fcall	_start_stop_display
  1854  0994  1283               	bcf	3,5	;RP0=0, select bank0
  1855  0995  1303               	bcf	3,6	;RP1=0, select bank0
  1856  0996  00E0               	movwf	??_main
  1857  0997  0860               	movf	??_main,w
  1858  0998  00ED               	movwf	_operation_mode
  1859  0999                     l4645:
  1860                           
  1861                           ;main.c: 98:                     break;
  1862  0999  036D               	decf	_operation_mode,w
  1863  099A  1D03               	btfss	3,2
  1864  099B  299D               	goto	u5811
  1865  099C  299E               	goto	u5810
  1866  099D                     u5811:
  1867  099D  29A3               	goto	l4649
  1868  099E                     u5810:
  1869  099E                     l4647:
  1870                           
  1871                           ;main.c: 99:           }
  1872  099E  3010               	movlw	16
  1873  099F  00E0               	movwf	??_main
  1874  09A0  0860               	movf	??_main,w
  1875  09A1  00EE               	movwf	_reset_mode
  1876  09A2  29DE               	goto	l4665
  1877  09A3                     l4649:
  1878  09A3  3004               	movlw	4
  1879  09A4  066D               	xorwf	_operation_mode,w
  1880  09A5  1D03               	btfss	3,2
  1881  09A6  29A8               	goto	u5821
  1882  09A7  29A9               	goto	u5820
  1883  09A8                     u5821:
  1884  09A8  29DE               	goto	l4665
  1885  09A9                     u5820:
  1886  09A9                     l4651:
  1887                           
  1888                           ;main.c: 101:         }
  1889  09A9  3001               	movlw	1
  1890  09AA  1683               	bsf	3,5	;RP0=1, select bank1
  1891  09AB  1303               	bcf	3,6	;RP1=0, select bank1
  1892  09AC  00C6               	movwf	main@flag^(0+128)
  1893  09AD  3000               	movlw	0
  1894  09AE  00C7               	movwf	(main@flag^(0+128)+1)
  1895  09AF  29DE               	goto	l4665
  1896  09B0                     l4653:
  1897                           
  1898                           ;main.c: 104: 
  1899  09B0  1683               	bsf	3,5	;RP0=1, select bank1
  1900  09B1  1303               	bcf	3,6	;RP1=0, select bank1
  1901  09B2  0346               	decf	main@flag^(0+128),w
  1902  09B3  0447               	iorwf	(main@flag+1)^(0+128),w
  1903  09B4  1D03               	btfss	3,2
  1904  09B5  29B7               	goto	u5831
  1905  09B6  29B8               	goto	u5830
  1906  09B7                     u5831:
  1907  09B7  29BC               	goto	l4657
  1908  09B8                     u5830:
  1909  09B8                     l4655:
  1910                           
  1911                           ;main.c: 105: ;main.c: 106: 
  1912  09B8  1283               	bcf	3,5	;RP0=0, select bank0
  1913  09B9  1303               	bcf	3,6	;RP1=0, select bank0
  1914  09BA  01EE               	clrf	_reset_mode
  1915  09BB  0AEE               	incf	_reset_mode,f
  1916  09BC                     l4657:
  1917                           
  1918                           ;main.c: 108: {
  1919  09BC  1683               	bsf	3,5	;RP0=1, select bank1
  1920  09BD  1303               	bcf	3,6	;RP1=0, select bank1
  1921  09BE  01C6               	clrf	main@flag^(0+128)
  1922  09BF  01C7               	clrf	(main@flag+1)^(0+128)
  1923  09C0                     l4659:
  1924                           
  1925                           ;main.c: 109:     clcd_write(0x01, 0);
  1926  09C0  0848               	movf	main@key^(0+128),w
  1927  09C1  120A  118A  203F  120A  158A  	fcall	_run_program
  1928                           
  1929                           ;main.c: 110:     _delay((unsigned long)((100)*(20000000/4000000.0)));
  1930  09C6  29DE               	goto	l4665
  1931  09C7                     l4663:
  1932  09C7  1283               	bcf	3,5	;RP0=0, select bank0
  1933  09C8  086D               	movf	_operation_mode,w
  1934  09C9  00E0               	movwf	??_main
  1935  09CA  01E1               	clrf	??_main+1
  1936                           
  1937                           ; Switch on 2 bytes has been partitioned into a top level switch of size 1, and 1 sub-sw
      +                          itches
  1938                           ; Switch size 1, requested type "simple"
  1939                           ; Number of cases is 1, Range of values is 0 to 0
  1940                           ; switch strategies available:
  1941                           ; Name         Instructions Cycles
  1942                           ; simple_byte            4     3 (average)
  1943                           ; direct_byte           11     8 (fixed)
  1944                           ; jumptable            260     6 (fixed)
  1945                           ;	Chosen strategy is simple_byte
  1946  09CB  0861               	movf	??_main+1,w
  1947  09CC  3A00               	xorlw	0	; case 0
  1948  09CD  1903               	skipnz
  1949  09CE  29D0               	goto	l4831
  1950  09CF  29DE               	goto	l4665
  1951  09D0                     l4831:
  1952                           
  1953                           ; Switch size 1, requested type "simple"
  1954                           ; Number of cases is 4, Range of values is 1 to 4
  1955                           ; switch strategies available:
  1956                           ; Name         Instructions Cycles
  1957                           ; simple_byte           13     7 (average)
  1958                           ; direct_byte           23    11 (fixed)
  1959                           ; jumptable            263     9 (fixed)
  1960                           ;	Chosen strategy is simple_byte
  1961  09D0  0860               	movf	??_main,w
  1962  09D1  3A01               	xorlw	1	; case 1
  1963  09D2  1903               	skipnz
  1964  09D3  297A               	goto	l4639
  1965  09D4  3A03               	xorlw	3	; case 2
  1966  09D5  1903               	skipnz
  1967  09D6  2983               	goto	l4641
  1968  09D7  3A01               	xorlw	1	; case 3
  1969  09D8  1903               	skipnz
  1970  09D9  298C               	goto	l4643
  1971  09DA  3A07               	xorlw	7	; case 4
  1972  09DB  1903               	skipnz
  1973  09DC  29B0               	goto	l4653
  1974  09DD  29DE               	goto	l4665
  1975  09DE                     l4665:
  1976                           
  1977                           ;main.c: 112: 
  1978  09DE  1283               	bcf	3,5	;RP0=0, select bank0
  1979  09DF  1303               	bcf	3,6	;RP1=0, select bank0
  1980  09E0  01EE               	clrf	_reset_mode
  1981  09E1  2928               	goto	l4615
  1982  09E2  120A  118A  280C   	ljmp	start
  1983  09E5                     __end_of_main:
  1984                           
  1985                           	psect	text1
  1986  0B12                     __ptext1:	
  1987 ;; *************** function _washing_program_display *****************
  1988 ;; Defined at:
  1989 ;;		line 218 in file "main.c"
  1990 ;; Parameters:    Size  Location     Type
  1991 ;;  key             1    wreg     unsigned char 
  1992 ;; Auto vars:     Size  Location     Type
  1993 ;;  key             1    9[BANK0 ] unsigned char 
  1994 ;; Return value:  Size  Location     Type
  1995 ;;                  1    wreg      void 
  1996 ;; Registers used:
  1997 ;;		wreg, fsr0l, fsr0h, status,2, status,0, btemp+1, pclath, cstack
  1998 ;; Tracked objects:
  1999 ;;		On entry : 0/0
  2000 ;;		On exit  : 0/0
  2001 ;;		Unchanged: 0/0
  2002 ;; Data sizes:     COMMON   BANK0   BANK1   BANK3   BANK2
  2003 ;;      Params:         0       0       0       0       0
  2004 ;;      Locals:         0       1       0       0       0
  2005 ;;      Temps:          0       3       0       0       0
  2006 ;;      Totals:         0       4       0       0       0
  2007 ;;Total ram usage:        4 bytes
  2008 ;; Hardware stack levels used: 1
  2009 ;; Hardware stack levels required when called: 3
  2010 ;; This function calls:
  2011 ;;		_clcd_print
  2012 ;;		_clcd_putch
  2013 ;;		_clear_scr
  2014 ;; This function is called by:
  2015 ;;		_main
  2016 ;; This function uses a non-reentrant model
  2017 ;;
  2018                           
  2019                           
  2020                           ;psect for function _washing_program_display
  2021  0B12                     _washing_program_display:
  2022                           
  2023                           ;incstack = 0
  2024                           ; Regs used in _washing_program_display: [wreg-fsr0h+status,2+status,0+btemp+1+pclath+cs
      +                          tack]
  2025                           ;washing_program_display@key stored from wreg
  2026  0B12  1283               	bcf	3,5	;RP0=0, select bank0
  2027  0B13  1303               	bcf	3,6	;RP1=0, select bank0
  2028  0B14  00A9               	movwf	washing_program_display@key
  2029  0B15                     l4393:
  2030                           
  2031                           ;main.c: 218: void washing_program_display(unsigned char key);main.c: 219: { if(reset_mo
      +                          de==0x10)
  2032  0B15  3010               	movlw	16
  2033  0B16  066E               	xorwf	_reset_mode,w
  2034  0B17  1D03               	btfss	3,2
  2035  0B18  2B1A               	goto	u5501
  2036  0B19  2B1B               	goto	u5500
  2037  0B1A                     u5501:
  2038  0B1A  2B21               	goto	l4399
  2039  0B1B                     u5500:
  2040  0B1B                     l4395:
  2041                           
  2042                           ;main.c: 220:     { program_no=0;
  2043  0B1B  01FA               	clrf	_program_no
  2044  0B1C                     l4397:
  2045                           
  2046                           ;main.c: 221:       clear_scr();
  2047  0B1C  160A  118A  231B  120A  158A  	fcall	_clear_scr
  2048  0B21                     l4399:
  2049                           
  2050                           ;main.c: 224:     if(key==0x37)
  2051  0B21  3037               	movlw	55
  2052  0B22  1283               	bcf	3,5	;RP0=0, select bank0
  2053  0B23  1303               	bcf	3,6	;RP1=0, select bank0
  2054  0B24  0629               	xorwf	washing_program_display@key,w
  2055  0B25  1D03               	btfss	3,2
  2056  0B26  2B28               	goto	u5511
  2057  0B27  2B29               	goto	u5510
  2058  0B28                     u5511:
  2059  0B28  2B4C               	goto	l4409
  2060  0B29                     u5510:
  2061  0B29                     l4401:
  2062                           
  2063                           ;main.c: 225:     { clear_scr();
  2064  0B29  160A  118A  231B  120A  158A  	fcall	_clear_scr
  2065  0B2E                     l4403:
  2066                           
  2067                           ;main.c: 226:       if((program_no+1)>=12)
  2068  0B2E  087A               	movf	_program_no,w
  2069  0B2F  3E01               	addlw	1
  2070  0B30  1283               	bcf	3,5	;RP0=0, select bank0
  2071  0B31  1303               	bcf	3,6	;RP1=0, select bank0
  2072  0B32  00A6               	movwf	??_washing_program_display
  2073  0B33  3000               	movlw	0
  2074  0B34  1803               	skipnc
  2075  0B35  3001               	movlw	1
  2076  0B36  00A7               	movwf	??_washing_program_display+1
  2077  0B37  0827               	movf	??_washing_program_display+1,w
  2078  0B38  3A80               	xorlw	128
  2079  0B39  00FF               	movwf	btemp+1
  2080  0B3A  3080               	movlw	128
  2081  0B3B  027F               	subwf	btemp+1,w
  2082  0B3C  1D03               	skipz
  2083  0B3D  2B40               	goto	u5525
  2084  0B3E  300C               	movlw	12
  2085  0B3F  0226               	subwf	??_washing_program_display,w
  2086  0B40                     u5525:
  2087  0B40  1C03               	skipc
  2088  0B41  2B43               	goto	u5521
  2089  0B42  2B44               	goto	u5520
  2090  0B43                     u5521:
  2091  0B43  2B46               	goto	l4407
  2092  0B44                     u5520:
  2093  0B44                     l4405:
  2094                           
  2095                           ;main.c: 227:       { program_no=0; }
  2096  0B44  01FA               	clrf	_program_no
  2097  0B45  2B4C               	goto	l4409
  2098  0B46                     l4407:
  2099                           
  2100                           ;main.c: 229:         program_no+=1;
  2101  0B46  3001               	movlw	1
  2102  0B47  1283               	bcf	3,5	;RP0=0, select bank0
  2103  0B48  1303               	bcf	3,6	;RP1=0, select bank0
  2104  0B49  00A6               	movwf	??_washing_program_display
  2105  0B4A  0826               	movf	??_washing_program_display,w
  2106  0B4B  07FA               	addwf	_program_no,f
  2107  0B4C                     l4409:
  2108                           
  2109                           ;main.c: 231:     clcd_print("Washing Programs",(0x80 + 0));
  2110  0B4C  3022               	movlw	low (STR_29| (0+32768))
  2111  0B4D  1283               	bcf	3,5	;RP0=0, select bank0
  2112  0B4E  1303               	bcf	3,6	;RP1=0, select bank0
  2113  0B4F  00A0               	movwf	clcd_print@str
  2114  0B50  3090               	movlw	high (STR_29| (0+32768))
  2115  0B51  00A1               	movwf	clcd_print@str+1
  2116  0B52  3080               	movlw	128
  2117  0B53  00A6               	movwf	??_washing_program_display
  2118  0B54  0826               	movf	??_washing_program_display,w
  2119  0B55  00A2               	movwf	clcd_print@addr
  2120  0B56  160A  118A  240B  120A  158A  	fcall	_clcd_print
  2121  0B5B                     l4411:
  2122                           
  2123                           ;main.c: 232:     clcd_putch('>',(0xC0 + 0));
  2124  0B5B  30C0               	movlw	192
  2125  0B5C  1283               	bcf	3,5	;RP0=0, select bank0
  2126  0B5D  1303               	bcf	3,6	;RP1=0, select bank0
  2127  0B5E  00A6               	movwf	??_washing_program_display
  2128  0B5F  0826               	movf	??_washing_program_display,w
  2129  0B60  00A4               	movwf	clcd_putch@addr
  2130  0B61  303E               	movlw	62
  2131  0B62  120A  158A  2000  120A  158A  	fcall	_clcd_putch
  2132  0B67                     l4413:
  2133                           
  2134                           ;main.c: 233:     if(program_no<=9)
  2135  0B67  300A               	movlw	10
  2136  0B68  027A               	subwf	_program_no,w
  2137  0B69  1803               	skipnc
  2138  0B6A  2B6C               	goto	u5531
  2139  0B6B  2B6D               	goto	u5530
  2140  0B6C                     u5531:
  2141  0B6C  2BB3               	goto	l4417
  2142  0B6D                     u5530:
  2143  0B6D                     l4415:
  2144                           
  2145                           ;main.c: 234:     { clcd_print(washing_prog[program_no],(0xC0 + 1));
  2146  0B6D  087A               	movf	_program_no,w
  2147  0B6E  1283               	bcf	3,5	;RP0=0, select bank0
  2148  0B6F  1303               	bcf	3,6	;RP1=0, select bank0
  2149  0B70  00A6               	movwf	??_washing_program_display
  2150  0B71  0726               	addwf	??_washing_program_display,w
  2151  0B72  3EA0               	addlw	(low (_washing_prog| 0))& (0+255)
  2152  0B73  0084               	movwf	4
  2153  0B74  1383               	bcf	3,7	;select IRP bank1
  2154  0B75  0800               	movf	0,w
  2155  0B76  00A0               	movwf	clcd_print@str
  2156  0B77  0A84               	incf	4,f
  2157  0B78  0800               	movf	0,w
  2158  0B79  0384               	decf	4,f
  2159  0B7A  00A1               	movwf	clcd_print@str+1
  2160  0B7B  30C1               	movlw	193
  2161  0B7C  00A8               	movwf	??_washing_program_display+2
  2162  0B7D  0828               	movf	??_washing_program_display+2,w
  2163  0B7E  00A2               	movwf	clcd_print@addr
  2164  0B7F  160A  118A  240B  120A  158A  	fcall	_clcd_print
  2165                           
  2166                           ;main.c: 235:         clcd_print(washing_prog[program_no+1],(0x90 + 1));
  2167  0B84  087A               	movf	_program_no,w
  2168  0B85  1283               	bcf	3,5	;RP0=0, select bank0
  2169  0B86  1303               	bcf	3,6	;RP1=0, select bank0
  2170  0B87  00A6               	movwf	??_washing_program_display
  2171  0B88  0726               	addwf	??_washing_program_display,w
  2172  0B89  3EA2               	addlw	(low ((_washing_prog| 0+2)))& (0+255)
  2173  0B8A  0084               	movwf	4
  2174  0B8B  1383               	bcf	3,7	;select IRP bank1
  2175  0B8C  0800               	movf	0,w
  2176  0B8D  00A0               	movwf	clcd_print@str
  2177  0B8E  0A84               	incf	4,f
  2178  0B8F  0800               	movf	0,w
  2179  0B90  0384               	decf	4,f
  2180  0B91  00A1               	movwf	clcd_print@str+1
  2181  0B92  3091               	movlw	145
  2182  0B93  00A8               	movwf	??_washing_program_display+2
  2183  0B94  0828               	movf	??_washing_program_display+2,w
  2184  0B95  00A2               	movwf	clcd_print@addr
  2185  0B96  160A  118A  240B  120A  158A  	fcall	_clcd_print
  2186                           
  2187                           ;main.c: 236:         clcd_print(washing_prog[program_no+2],(0xD0 + 1));
  2188  0B9B  087A               	movf	_program_no,w
  2189  0B9C  1283               	bcf	3,5	;RP0=0, select bank0
  2190  0B9D  1303               	bcf	3,6	;RP1=0, select bank0
  2191  0B9E  00A6               	movwf	??_washing_program_display
  2192  0B9F  0726               	addwf	??_washing_program_display,w
  2193  0BA0  3EA4               	addlw	(low ((_washing_prog| 0+4)))& (0+255)
  2194  0BA1  0084               	movwf	4
  2195  0BA2  1383               	bcf	3,7	;select IRP bank1
  2196  0BA3  0800               	movf	0,w
  2197  0BA4  00A0               	movwf	clcd_print@str
  2198  0BA5  0A84               	incf	4,f
  2199  0BA6  0800               	movf	0,w
  2200  0BA7  0384               	decf	4,f
  2201  0BA8  00A1               	movwf	clcd_print@str+1
  2202  0BA9  30D1               	movlw	209
  2203  0BAA  00A8               	movwf	??_washing_program_display+2
  2204  0BAB  0828               	movf	??_washing_program_display+2,w
  2205  0BAC  00A2               	movwf	clcd_print@addr
  2206  0BAD  160A  118A  240B  120A  158A  	fcall	_clcd_print
  2207                           
  2208                           ;main.c: 237:     }
  2209  0BB2  2C3E               	goto	l139
  2210  0BB3                     l4417:
  2211  0BB3  300A               	movlw	10
  2212  0BB4  067A               	xorwf	_program_no,w
  2213  0BB5  1D03               	btfss	3,2
  2214  0BB6  2BB8               	goto	u5541
  2215  0BB7  2BB9               	goto	u5540
  2216  0BB8                     u5541:
  2217  0BB8  2BFD               	goto	l4421
  2218  0BB9                     u5540:
  2219  0BB9                     l4419:
  2220                           
  2221                           ;main.c: 239:     {;main.c: 241:         clcd_print(washing_prog[program_no],(0xC0 + 1))
      +                          ;
  2222  0BB9  087A               	movf	_program_no,w
  2223  0BBA  1283               	bcf	3,5	;RP0=0, select bank0
  2224  0BBB  1303               	bcf	3,6	;RP1=0, select bank0
  2225  0BBC  00A6               	movwf	??_washing_program_display
  2226  0BBD  0726               	addwf	??_washing_program_display,w
  2227  0BBE  3EA0               	addlw	(low (_washing_prog| 0))& (0+255)
  2228  0BBF  0084               	movwf	4
  2229  0BC0  1383               	bcf	3,7	;select IRP bank1
  2230  0BC1  0800               	movf	0,w
  2231  0BC2  00A0               	movwf	clcd_print@str
  2232  0BC3  0A84               	incf	4,f
  2233  0BC4  0800               	movf	0,w
  2234  0BC5  0384               	decf	4,f
  2235  0BC6  00A1               	movwf	clcd_print@str+1
  2236  0BC7  30C1               	movlw	193
  2237  0BC8  00A8               	movwf	??_washing_program_display+2
  2238  0BC9  0828               	movf	??_washing_program_display+2,w
  2239  0BCA  00A2               	movwf	clcd_print@addr
  2240  0BCB  160A  118A  240B  120A  158A  	fcall	_clcd_print
  2241                           
  2242                           ;main.c: 242:         clcd_print(washing_prog[program_no+1],(0x90 + 1));
  2243  0BD0  087A               	movf	_program_no,w
  2244  0BD1  1283               	bcf	3,5	;RP0=0, select bank0
  2245  0BD2  1303               	bcf	3,6	;RP1=0, select bank0
  2246  0BD3  00A6               	movwf	??_washing_program_display
  2247  0BD4  0726               	addwf	??_washing_program_display,w
  2248  0BD5  3EA2               	addlw	(low ((_washing_prog| 0+2)))& (0+255)
  2249  0BD6  0084               	movwf	4
  2250  0BD7  1383               	bcf	3,7	;select IRP bank1
  2251  0BD8  0800               	movf	0,w
  2252  0BD9  00A0               	movwf	clcd_print@str
  2253  0BDA  0A84               	incf	4,f
  2254  0BDB  0800               	movf	0,w
  2255  0BDC  0384               	decf	4,f
  2256  0BDD  00A1               	movwf	clcd_print@str+1
  2257  0BDE  3091               	movlw	145
  2258  0BDF  00A8               	movwf	??_washing_program_display+2
  2259  0BE0  0828               	movf	??_washing_program_display+2,w
  2260  0BE1  00A2               	movwf	clcd_print@addr
  2261  0BE2  160A  118A  240B  120A  158A  	fcall	_clcd_print
  2262                           
  2263                           ;main.c: 243:         clcd_print(washing_prog[0],(0xD0 + 1));
  2264  0BE7  1683               	bsf	3,5	;RP0=1, select bank1
  2265  0BE8  1303               	bcf	3,6	;RP1=0, select bank1
  2266  0BE9  0820               	movf	_washing_prog^(0+128),w
  2267  0BEA  1283               	bcf	3,5	;RP0=0, select bank0
  2268  0BEB  1303               	bcf	3,6	;RP1=0, select bank0
  2269  0BEC  00A0               	movwf	clcd_print@str
  2270  0BED  1683               	bsf	3,5	;RP0=1, select bank1
  2271  0BEE  1303               	bcf	3,6	;RP1=0, select bank1
  2272  0BEF  0821               	movf	(_washing_prog+1)^(0+128),w
  2273  0BF0  1283               	bcf	3,5	;RP0=0, select bank0
  2274  0BF1  1303               	bcf	3,6	;RP1=0, select bank0
  2275  0BF2  00A1               	movwf	clcd_print@str+1
  2276  0BF3  30D1               	movlw	209
  2277  0BF4  00A6               	movwf	??_washing_program_display
  2278  0BF5  0826               	movf	??_washing_program_display,w
  2279  0BF6  00A2               	movwf	clcd_print@addr
  2280  0BF7  160A  118A  240B  120A  158A  	fcall	_clcd_print
  2281                           
  2282                           ;main.c: 244:     }
  2283  0BFC  2C3E               	goto	l139
  2284  0BFD                     l4421:
  2285                           
  2286                           ;main.c: 246:     {;main.c: 247:         clcd_print(washing_prog[program_no],(0xC0 + 1))
      +                          ;
  2287  0BFD  087A               	movf	_program_no,w
  2288  0BFE  1283               	bcf	3,5	;RP0=0, select bank0
  2289  0BFF  1303               	bcf	3,6	;RP1=0, select bank0
  2290  0C00  00A6               	movwf	??_washing_program_display
  2291  0C01  0726               	addwf	??_washing_program_display,w
  2292  0C02  3EA0               	addlw	(low (_washing_prog| 0))& (0+255)
  2293  0C03  0084               	movwf	4
  2294  0C04  1383               	bcf	3,7	;select IRP bank1
  2295  0C05  0800               	movf	0,w
  2296  0C06  00A0               	movwf	clcd_print@str
  2297  0C07  0A84               	incf	4,f
  2298  0C08  0800               	movf	0,w
  2299  0C09  0384               	decf	4,f
  2300  0C0A  00A1               	movwf	clcd_print@str+1
  2301  0C0B  30C1               	movlw	193
  2302  0C0C  00A8               	movwf	??_washing_program_display+2
  2303  0C0D  0828               	movf	??_washing_program_display+2,w
  2304  0C0E  00A2               	movwf	clcd_print@addr
  2305  0C0F  160A  118A  240B  120A  158A  	fcall	_clcd_print
  2306                           
  2307                           ;main.c: 248:         clcd_print(washing_prog[0],(0x90 + 1));
  2308  0C14  1683               	bsf	3,5	;RP0=1, select bank1
  2309  0C15  1303               	bcf	3,6	;RP1=0, select bank1
  2310  0C16  0820               	movf	_washing_prog^(0+128),w
  2311  0C17  1283               	bcf	3,5	;RP0=0, select bank0
  2312  0C18  1303               	bcf	3,6	;RP1=0, select bank0
  2313  0C19  00A0               	movwf	clcd_print@str
  2314  0C1A  1683               	bsf	3,5	;RP0=1, select bank1
  2315  0C1B  1303               	bcf	3,6	;RP1=0, select bank1
  2316  0C1C  0821               	movf	(_washing_prog+1)^(0+128),w
  2317  0C1D  1283               	bcf	3,5	;RP0=0, select bank0
  2318  0C1E  1303               	bcf	3,6	;RP1=0, select bank0
  2319  0C1F  00A1               	movwf	clcd_print@str+1
  2320  0C20  3091               	movlw	145
  2321  0C21  00A6               	movwf	??_washing_program_display
  2322  0C22  0826               	movf	??_washing_program_display,w
  2323  0C23  00A2               	movwf	clcd_print@addr
  2324  0C24  160A  118A  240B  120A  158A  	fcall	_clcd_print
  2325                           
  2326                           ;main.c: 249:         clcd_print(washing_prog[1],(0xD0 + 1));
  2327  0C29  1683               	bsf	3,5	;RP0=1, select bank1
  2328  0C2A  1303               	bcf	3,6	;RP1=0, select bank1
  2329  0C2B  0822               	movf	(low ((_washing_prog| 0+2)))^(0+128),w
  2330  0C2C  1283               	bcf	3,5	;RP0=0, select bank0
  2331  0C2D  1303               	bcf	3,6	;RP1=0, select bank0
  2332  0C2E  00A0               	movwf	clcd_print@str
  2333  0C2F  1683               	bsf	3,5	;RP0=1, select bank1
  2334  0C30  1303               	bcf	3,6	;RP1=0, select bank1
  2335  0C31  0823               	movf	((low ((_washing_prog| 0+2))+1))^(0+128),w
  2336  0C32  1283               	bcf	3,5	;RP0=0, select bank0
  2337  0C33  1303               	bcf	3,6	;RP1=0, select bank0
  2338  0C34  00A1               	movwf	clcd_print@str+1
  2339  0C35  30D1               	movlw	209
  2340  0C36  00A6               	movwf	??_washing_program_display
  2341  0C37  0826               	movf	??_washing_program_display,w
  2342  0C38  00A2               	movwf	clcd_print@addr
  2343  0C39  160A  118A  240B  120A  158A  	fcall	_clcd_print
  2344  0C3E                     l139:
  2345  0C3E  0008               	return
  2346  0C3F                     __end_of_washing_program_display:
  2347                           
  2348                           	psect	text2
  2349  09E5                     __ptext2:	
  2350 ;; *************** function _wash_level_display *****************
  2351 ;; Defined at:
  2352 ;;		line 173 in file "main.c"
  2353 ;; Parameters:    Size  Location     Type
  2354 ;;  key             1    wreg     unsigned char 
  2355 ;; Auto vars:     Size  Location     Type
  2356 ;;  key             1    9[BANK0 ] unsigned char 
  2357 ;; Return value:  Size  Location     Type
  2358 ;;                  1    wreg      void 
  2359 ;; Registers used:
  2360 ;;		wreg, fsr0l, fsr0h, status,2, status,0, btemp+1, pclath, cstack
  2361 ;; Tracked objects:
  2362 ;;		On entry : 0/0
  2363 ;;		On exit  : 0/0
  2364 ;;		Unchanged: 0/0
  2365 ;; Data sizes:     COMMON   BANK0   BANK1   BANK3   BANK2
  2366 ;;      Params:         0       0       0       0       0
  2367 ;;      Locals:         0       1       0       0       0
  2368 ;;      Temps:          0       3       0       0       0
  2369 ;;      Totals:         0       4       0       0       0
  2370 ;;Total ram usage:        4 bytes
  2371 ;; Hardware stack levels used: 1
  2372 ;; Hardware stack levels required when called: 3
  2373 ;; This function calls:
  2374 ;;		_clcd_print
  2375 ;;		_clcd_putch
  2376 ;;		_clear_scr
  2377 ;; This function is called by:
  2378 ;;		_main
  2379 ;; This function uses a non-reentrant model
  2380 ;;
  2381                           
  2382                           
  2383                           ;psect for function _wash_level_display
  2384  09E5                     _wash_level_display:
  2385                           
  2386                           ;incstack = 0
  2387                           ; Regs used in _wash_level_display: [wreg-fsr0h+status,2+status,0+btemp+1+pclath+cstack]
  2388                           ;wash_level_display@key stored from wreg
  2389  09E5  1283               	bcf	3,5	;RP0=0, select bank0
  2390  09E6  1303               	bcf	3,6	;RP1=0, select bank0
  2391  09E7  00A9               	movwf	wash_level_display@key
  2392  09E8                     l4423:
  2393                           
  2394                           ;main.c: 173:   };main.c: 174:   clcd_print("WATER LEVEL",(0x80 + 0));
  2395  09E8  3011               	movlw	17
  2396  09E9  066E               	xorwf	_reset_mode,w
  2397  09EA  1D03               	btfss	3,2
  2398  09EB  29ED               	goto	u5551
  2399  09EC  29EE               	goto	u5550
  2400  09ED                     u5551:
  2401  09ED  29F4               	goto	l4429
  2402  09EE                     u5550:
  2403  09EE                     l4425:
  2404                           
  2405                           ;main.c: 175:   clcd_putch('>',(0xC0 + 0));
  2406  09EE  01F9               	clrf	_level_no
  2407  09EF                     l4427:
  2408                           
  2409                           ;main.c: 176:   if(level_no<=2)
  2410  09EF  160A  118A  231B  120A  158A  	fcall	_clear_scr
  2411  09F4                     l4429:
  2412                           
  2413                           ;main.c: 179:     clcd_print(water_levels[level_no+2],(0xD0 + 1));
  2414  09F4  3037               	movlw	55
  2415  09F5  1283               	bcf	3,5	;RP0=0, select bank0
  2416  09F6  1303               	bcf	3,6	;RP1=0, select bank0
  2417  09F7  0629               	xorwf	wash_level_display@key,w
  2418  09F8  1D03               	btfss	3,2
  2419  09F9  29FB               	goto	u5561
  2420  09FA  29FC               	goto	u5560
  2421  09FB                     u5561:
  2422  09FB  2A1F               	goto	l4439
  2423  09FC                     u5560:
  2424  09FC                     l4431:
  2425                           
  2426                           ;main.c: 180:   }
  2427  09FC  160A  118A  231B  120A  158A  	fcall	_clear_scr
  2428  0A01                     l4433:
  2429                           
  2430                           ;main.c: 181:   else if(level_no==3)
  2431  0A01  0879               	movf	_level_no,w
  2432  0A02  3E01               	addlw	1
  2433  0A03  1283               	bcf	3,5	;RP0=0, select bank0
  2434  0A04  1303               	bcf	3,6	;RP1=0, select bank0
  2435  0A05  00A6               	movwf	??_wash_level_display
  2436  0A06  3000               	movlw	0
  2437  0A07  1803               	skipnc
  2438  0A08  3001               	movlw	1
  2439  0A09  00A7               	movwf	??_wash_level_display+1
  2440  0A0A  0827               	movf	??_wash_level_display+1,w
  2441  0A0B  3A80               	xorlw	128
  2442  0A0C  00FF               	movwf	btemp+1
  2443  0A0D  3080               	movlw	128
  2444  0A0E  027F               	subwf	btemp+1,w
  2445  0A0F  1D03               	skipz
  2446  0A10  2A13               	goto	u5575
  2447  0A11  3005               	movlw	5
  2448  0A12  0226               	subwf	??_wash_level_display,w
  2449  0A13                     u5575:
  2450  0A13  1C03               	skipc
  2451  0A14  2A16               	goto	u5571
  2452  0A15  2A17               	goto	u5570
  2453  0A16                     u5571:
  2454  0A16  2A19               	goto	l4437
  2455  0A17                     u5570:
  2456  0A17                     l4435:
  2457                           
  2458                           ;main.c: 182:   { clcd_print(water_levels[level_no],(0xC0 + 1));
  2459  0A17  01F9               	clrf	_level_no
  2460  0A18  2A1F               	goto	l4439
  2461  0A19                     l4437:
  2462                           
  2463                           ;main.c: 184:     clcd_print(water_levels[0],(0xD0 + 1));
  2464  0A19  3001               	movlw	1
  2465  0A1A  1283               	bcf	3,5	;RP0=0, select bank0
  2466  0A1B  1303               	bcf	3,6	;RP1=0, select bank0
  2467  0A1C  00A6               	movwf	??_wash_level_display
  2468  0A1D  0826               	movf	??_wash_level_display,w
  2469  0A1E  07F9               	addwf	_level_no,f
  2470  0A1F                     l4439:
  2471                           
  2472                           ;main.c: 186:   else
  2473  0A1F  30DA               	movlw	low (STR_28| (0+32768))
  2474  0A20  1283               	bcf	3,5	;RP0=0, select bank0
  2475  0A21  1303               	bcf	3,6	;RP1=0, select bank0
  2476  0A22  00A0               	movwf	clcd_print@str
  2477  0A23  3090               	movlw	high (STR_28| (0+32768))
  2478  0A24  00A1               	movwf	clcd_print@str+1
  2479  0A25  3080               	movlw	128
  2480  0A26  00A6               	movwf	??_wash_level_display
  2481  0A27  0826               	movf	??_wash_level_display,w
  2482  0A28  00A2               	movwf	clcd_print@addr
  2483  0A29  160A  118A  240B  120A  158A  	fcall	_clcd_print
  2484  0A2E                     l4441:
  2485                           
  2486                           ;main.c: 187:   { clcd_print(water_levels[level_no],(0xC0 + 1));
  2487  0A2E  30C0               	movlw	192
  2488  0A2F  1283               	bcf	3,5	;RP0=0, select bank0
  2489  0A30  1303               	bcf	3,6	;RP1=0, select bank0
  2490  0A31  00A6               	movwf	??_wash_level_display
  2491  0A32  0826               	movf	??_wash_level_display,w
  2492  0A33  00A4               	movwf	clcd_putch@addr
  2493  0A34  303E               	movlw	62
  2494  0A35  120A  158A  2000  120A  158A  	fcall	_clcd_putch
  2495  0A3A                     l4443:
  2496                           
  2497                           ;main.c: 188:     clcd_print(water_levels[0],(0x90 + 1));
  2498  0A3A  3003               	movlw	3
  2499  0A3B  0279               	subwf	_level_no,w
  2500  0A3C  1803               	skipnc
  2501  0A3D  2A3F               	goto	u5581
  2502  0A3E  2A40               	goto	u5580
  2503  0A3F                     u5581:
  2504  0A3F  2A86               	goto	l4447
  2505  0A40                     u5580:
  2506  0A40                     l4445:
  2507                           
  2508                           ;main.c: 189:     clcd_print(water_levels[1],(0xD0 + 1));
  2509  0A40  0879               	movf	_level_no,w
  2510  0A41  1283               	bcf	3,5	;RP0=0, select bank0
  2511  0A42  1303               	bcf	3,6	;RP1=0, select bank0
  2512  0A43  00A6               	movwf	??_wash_level_display
  2513  0A44  0726               	addwf	??_wash_level_display,w
  2514  0A45  3EB8               	addlw	(low (_water_levels| 0))& (0+255)
  2515  0A46  0084               	movwf	4
  2516  0A47  1383               	bcf	3,7	;select IRP bank1
  2517  0A48  0800               	movf	0,w
  2518  0A49  00A0               	movwf	clcd_print@str
  2519  0A4A  0A84               	incf	4,f
  2520  0A4B  0800               	movf	0,w
  2521  0A4C  0384               	decf	4,f
  2522  0A4D  00A1               	movwf	clcd_print@str+1
  2523  0A4E  30C1               	movlw	193
  2524  0A4F  00A8               	movwf	??_wash_level_display+2
  2525  0A50  0828               	movf	??_wash_level_display+2,w
  2526  0A51  00A2               	movwf	clcd_print@addr
  2527  0A52  160A  118A  240B  120A  158A  	fcall	_clcd_print
  2528                           
  2529                           ;main.c: 190:   }
  2530  0A57  0879               	movf	_level_no,w
  2531  0A58  1283               	bcf	3,5	;RP0=0, select bank0
  2532  0A59  1303               	bcf	3,6	;RP1=0, select bank0
  2533  0A5A  00A6               	movwf	??_wash_level_display
  2534  0A5B  0726               	addwf	??_wash_level_display,w
  2535  0A5C  3EBA               	addlw	(low ((_water_levels| 0+2)))& (0+255)
  2536  0A5D  0084               	movwf	4
  2537  0A5E  1383               	bcf	3,7	;select IRP bank1
  2538  0A5F  0800               	movf	0,w
  2539  0A60  00A0               	movwf	clcd_print@str
  2540  0A61  0A84               	incf	4,f
  2541  0A62  0800               	movf	0,w
  2542  0A63  0384               	decf	4,f
  2543  0A64  00A1               	movwf	clcd_print@str+1
  2544  0A65  3091               	movlw	145
  2545  0A66  00A8               	movwf	??_wash_level_display+2
  2546  0A67  0828               	movf	??_wash_level_display+2,w
  2547  0A68  00A2               	movwf	clcd_print@addr
  2548  0A69  160A  118A  240B  120A  158A  	fcall	_clcd_print
  2549                           
  2550                           ;main.c: 191: 
  2551  0A6E  0879               	movf	_level_no,w
  2552  0A6F  1283               	bcf	3,5	;RP0=0, select bank0
  2553  0A70  1303               	bcf	3,6	;RP1=0, select bank0
  2554  0A71  00A6               	movwf	??_wash_level_display
  2555  0A72  0726               	addwf	??_wash_level_display,w
  2556  0A73  3EBC               	addlw	(low ((_water_levels| 0+4)))& (0+255)
  2557  0A74  0084               	movwf	4
  2558  0A75  1383               	bcf	3,7	;select IRP bank1
  2559  0A76  0800               	movf	0,w
  2560  0A77  00A0               	movwf	clcd_print@str
  2561  0A78  0A84               	incf	4,f
  2562  0A79  0800               	movf	0,w
  2563  0A7A  0384               	decf	4,f
  2564  0A7B  00A1               	movwf	clcd_print@str+1
  2565  0A7C  30D1               	movlw	209
  2566  0A7D  00A8               	movwf	??_wash_level_display+2
  2567  0A7E  0828               	movf	??_wash_level_display+2,w
  2568  0A7F  00A2               	movwf	clcd_print@addr
  2569  0A80  160A  118A  240B  120A  158A  	fcall	_clcd_print
  2570                           
  2571                           ;main.c: 192: 
  2572  0A85  2B11               	goto	l128
  2573  0A86                     l4447:
  2574  0A86  3003               	movlw	3
  2575  0A87  0679               	xorwf	_level_no,w
  2576  0A88  1D03               	btfss	3,2
  2577  0A89  2A8B               	goto	u5591
  2578  0A8A  2A8C               	goto	u5590
  2579  0A8B                     u5591:
  2580  0A8B  2AD0               	goto	l4451
  2581  0A8C                     u5590:
  2582  0A8C                     l4449:
  2583  0A8C  0879               	movf	_level_no,w
  2584  0A8D  1283               	bcf	3,5	;RP0=0, select bank0
  2585  0A8E  1303               	bcf	3,6	;RP1=0, select bank0
  2586  0A8F  00A6               	movwf	??_wash_level_display
  2587  0A90  0726               	addwf	??_wash_level_display,w
  2588  0A91  3EB8               	addlw	(low (_water_levels| 0))& (0+255)
  2589  0A92  0084               	movwf	4
  2590  0A93  1383               	bcf	3,7	;select IRP bank1
  2591  0A94  0800               	movf	0,w
  2592  0A95  00A0               	movwf	clcd_print@str
  2593  0A96  0A84               	incf	4,f
  2594  0A97  0800               	movf	0,w
  2595  0A98  0384               	decf	4,f
  2596  0A99  00A1               	movwf	clcd_print@str+1
  2597  0A9A  30C1               	movlw	193
  2598  0A9B  00A8               	movwf	??_wash_level_display+2
  2599  0A9C  0828               	movf	??_wash_level_display+2,w
  2600  0A9D  00A2               	movwf	clcd_print@addr
  2601  0A9E  160A  118A  240B  120A  158A  	fcall	_clcd_print
  2602  0AA3  0879               	movf	_level_no,w
  2603  0AA4  1283               	bcf	3,5	;RP0=0, select bank0
  2604  0AA5  1303               	bcf	3,6	;RP1=0, select bank0
  2605  0AA6  00A6               	movwf	??_wash_level_display
  2606  0AA7  0726               	addwf	??_wash_level_display,w
  2607  0AA8  3EBA               	addlw	(low ((_water_levels| 0+2)))& (0+255)
  2608  0AA9  0084               	movwf	4
  2609  0AAA  1383               	bcf	3,7	;select IRP bank1
  2610  0AAB  0800               	movf	0,w
  2611  0AAC  00A0               	movwf	clcd_print@str
  2612  0AAD  0A84               	incf	4,f
  2613  0AAE  0800               	movf	0,w
  2614  0AAF  0384               	decf	4,f
  2615  0AB0  00A1               	movwf	clcd_print@str+1
  2616  0AB1  3091               	movlw	145
  2617  0AB2  00A8               	movwf	??_wash_level_display+2
  2618  0AB3  0828               	movf	??_wash_level_display+2,w
  2619  0AB4  00A2               	movwf	clcd_print@addr
  2620  0AB5  160A  118A  240B  120A  158A  	fcall	_clcd_print
  2621  0ABA  1683               	bsf	3,5	;RP0=1, select bank1
  2622  0ABB  1303               	bcf	3,6	;RP1=0, select bank1
  2623  0ABC  0838               	movf	_water_levels^(0+128),w
  2624  0ABD  1283               	bcf	3,5	;RP0=0, select bank0
  2625  0ABE  1303               	bcf	3,6	;RP1=0, select bank0
  2626  0ABF  00A0               	movwf	clcd_print@str
  2627  0AC0  1683               	bsf	3,5	;RP0=1, select bank1
  2628  0AC1  1303               	bcf	3,6	;RP1=0, select bank1
  2629  0AC2  0839               	movf	(_water_levels+1)^(0+128),w
  2630  0AC3  1283               	bcf	3,5	;RP0=0, select bank0
  2631  0AC4  1303               	bcf	3,6	;RP1=0, select bank0
  2632  0AC5  00A1               	movwf	clcd_print@str+1
  2633  0AC6  30D1               	movlw	209
  2634  0AC7  00A6               	movwf	??_wash_level_display
  2635  0AC8  0826               	movf	??_wash_level_display,w
  2636  0AC9  00A2               	movwf	clcd_print@addr
  2637  0ACA  160A  118A  240B  120A  158A  	fcall	_clcd_print
  2638  0ACF  2B11               	goto	l128
  2639  0AD0                     l4451:
  2640  0AD0  0879               	movf	_level_no,w
  2641  0AD1  1283               	bcf	3,5	;RP0=0, select bank0
  2642  0AD2  1303               	bcf	3,6	;RP1=0, select bank0
  2643  0AD3  00A6               	movwf	??_wash_level_display
  2644  0AD4  0726               	addwf	??_wash_level_display,w
  2645  0AD5  3EB8               	addlw	(low (_water_levels| 0))& (0+255)
  2646  0AD6  0084               	movwf	4
  2647  0AD7  1383               	bcf	3,7	;select IRP bank1
  2648  0AD8  0800               	movf	0,w
  2649  0AD9  00A0               	movwf	clcd_print@str
  2650  0ADA  0A84               	incf	4,f
  2651  0ADB  0800               	movf	0,w
  2652  0ADC  0384               	decf	4,f
  2653  0ADD  00A1               	movwf	clcd_print@str+1
  2654  0ADE  30C1               	movlw	193
  2655  0ADF  00A8               	movwf	??_wash_level_display+2
  2656  0AE0  0828               	movf	??_wash_level_display+2,w
  2657  0AE1  00A2               	movwf	clcd_print@addr
  2658  0AE2  160A  118A  240B  120A  158A  	fcall	_clcd_print
  2659  0AE7  1683               	bsf	3,5	;RP0=1, select bank1
  2660  0AE8  1303               	bcf	3,6	;RP1=0, select bank1
  2661  0AE9  0838               	movf	_water_levels^(0+128),w
  2662  0AEA  1283               	bcf	3,5	;RP0=0, select bank0
  2663  0AEB  1303               	bcf	3,6	;RP1=0, select bank0
  2664  0AEC  00A0               	movwf	clcd_print@str
  2665  0AED  1683               	bsf	3,5	;RP0=1, select bank1
  2666  0AEE  1303               	bcf	3,6	;RP1=0, select bank1
  2667  0AEF  0839               	movf	(_water_levels+1)^(0+128),w
  2668  0AF0  1283               	bcf	3,5	;RP0=0, select bank0
  2669  0AF1  1303               	bcf	3,6	;RP1=0, select bank0
  2670  0AF2  00A1               	movwf	clcd_print@str+1
  2671  0AF3  3091               	movlw	145
  2672  0AF4  00A6               	movwf	??_wash_level_display
  2673  0AF5  0826               	movf	??_wash_level_display,w
  2674  0AF6  00A2               	movwf	clcd_print@addr
  2675  0AF7  160A  118A  240B  120A  158A  	fcall	_clcd_print
  2676  0AFC  1683               	bsf	3,5	;RP0=1, select bank1
  2677  0AFD  1303               	bcf	3,6	;RP1=0, select bank1
  2678  0AFE  083A               	movf	(low ((_water_levels| 0+2)))^(0+128),w
  2679  0AFF  1283               	bcf	3,5	;RP0=0, select bank0
  2680  0B00  1303               	bcf	3,6	;RP1=0, select bank0
  2681  0B01  00A0               	movwf	clcd_print@str
  2682  0B02  1683               	bsf	3,5	;RP0=1, select bank1
  2683  0B03  1303               	bcf	3,6	;RP1=0, select bank1
  2684  0B04  083B               	movf	((low ((_water_levels| 0+2))+1))^(0+128),w
  2685  0B05  1283               	bcf	3,5	;RP0=0, select bank0
  2686  0B06  1303               	bcf	3,6	;RP1=0, select bank0
  2687  0B07  00A1               	movwf	clcd_print@str+1
  2688  0B08  30D1               	movlw	209
  2689  0B09  00A6               	movwf	??_wash_level_display
  2690  0B0A  0826               	movf	??_wash_level_display,w
  2691  0B0B  00A2               	movwf	clcd_print@addr
  2692  0B0C  160A  118A  240B  120A  158A  	fcall	_clcd_print
  2693  0B11                     l128:
  2694  0B11  0008               	return
  2695  0B12                     __end_of_wash_level_display:
  2696                           
  2697                           	psect	text3
  2698  14CB                     __ptext3:	
  2699 ;; *************** function _start_stop_display *****************
  2700 ;; Defined at:
  2701 ;;		line 149 in file "main.c"
  2702 ;; Parameters:    Size  Location     Type
  2703 ;;  key             1    wreg     unsigned char 
  2704 ;; Auto vars:     Size  Location     Type
  2705 ;;  key             1    4[BANK0 ] unsigned char 
  2706 ;; Return value:  Size  Location     Type
  2707 ;;                  1    wreg      unsigned char 
  2708 ;; Registers used:
  2709 ;;		wreg, fsr0l, fsr0h, status,2, status,0, btemp+1, pclath, cstack
  2710 ;; Tracked objects:
  2711 ;;		On entry : 0/0
  2712 ;;		On exit  : 0/0
  2713 ;;		Unchanged: 0/0
  2714 ;; Data sizes:     COMMON   BANK0   BANK1   BANK3   BANK2
  2715 ;;      Params:         0       0       0       0       0
  2716 ;;      Locals:         0       1       0       0       0
  2717 ;;      Temps:          0       1       0       0       0
  2718 ;;      Totals:         0       2       0       0       0
  2719 ;;Total ram usage:        2 bytes
  2720 ;; Hardware stack levels used: 1
  2721 ;; Hardware stack levels required when called: 3
  2722 ;; This function calls:
  2723 ;;		_clcd_print
  2724 ;;		_clear_scr
  2725 ;;		_set_time_for_program
  2726 ;; This function is called by:
  2727 ;;		_main
  2728 ;; This function uses a non-reentrant model
  2729 ;;
  2730                           
  2731                           
  2732                           ;psect for function _start_stop_display
  2733  14CB                     _start_stop_display:
  2734                           
  2735                           ;incstack = 0
  2736                           ; Regs used in _start_stop_display: [wreg-fsr0h+status,2+status,0+btemp+1+pclath+cstack]
  2737                           ;start_stop_display@key stored from wreg
  2738  14CB  1283               	bcf	3,5	;RP0=0, select bank0
  2739  14CC  1303               	bcf	3,6	;RP1=0, select bank0
  2740  14CD  00A4               	movwf	start_stop_display@key
  2741  14CE                     l4453:
  2742                           
  2743                           ;main.c: 149:   {;main.c: 150:       return 0x04;
  2744  14CE  3012               	movlw	18
  2745  14CF  066E               	xorwf	_reset_mode,w
  2746  14D0  1D03               	btfss	3,2
  2747  14D1  2CD3               	goto	u5601
  2748  14D2  2CD4               	goto	u5600
  2749  14D3                     u5601:
  2750  14D3  2CD9               	goto	l4457
  2751  14D4                     u5600:
  2752  14D4                     l4455:
  2753                           
  2754                           ;main.c: 151:   }
  2755  14D4  160A  118A  231B  160A  118A  	fcall	_clear_scr
  2756  14D9                     l4457:
  2757                           
  2758                           ;main.c: 152:   return 0x03;
  2759  14D9  120A  158A  243F  160A  118A  	fcall	_set_time_for_program
  2760  14DE                     l4459:
  2761                           
  2762                           ;main.c: 153: }
  2763  14DE  307D               	movlw	low (STR_25| (0+32768))
  2764  14DF  1283               	bcf	3,5	;RP0=0, select bank0
  2765  14E0  1303               	bcf	3,6	;RP1=0, select bank0
  2766  14E1  00A0               	movwf	clcd_print@str
  2767  14E2  3090               	movlw	high (STR_25| (0+32768))
  2768  14E3  00A1               	movwf	clcd_print@str+1
  2769  14E4  3080               	movlw	128
  2770  14E5  00A3               	movwf	??_start_stop_display
  2771  14E6  0823               	movf	??_start_stop_display,w
  2772  14E7  00A2               	movwf	clcd_print@addr
  2773  14E8  160A  118A  240B  160A  118A  	fcall	_clcd_print
  2774  14ED                     l4461:
  2775                           
  2776                           ;main.c: 154: 
  2777  14ED  30E6               	movlw	low (STR_26| (0+32768))
  2778  14EE  1283               	bcf	3,5	;RP0=0, select bank0
  2779  14EF  1303               	bcf	3,6	;RP1=0, select bank0
  2780  14F0  00A0               	movwf	clcd_print@str
  2781  14F1  3090               	movlw	high (STR_26| (0+32768))
  2782  14F2  00A1               	movwf	clcd_print@str+1
  2783  14F3  30C0               	movlw	192
  2784  14F4  00A3               	movwf	??_start_stop_display
  2785  14F5  0823               	movf	??_start_stop_display,w
  2786  14F6  00A2               	movwf	clcd_print@addr
  2787  14F7  160A  118A  240B  160A  118A  	fcall	_clcd_print
  2788  14FC                     l4463:
  2789                           
  2790                           ;main.c: 155: 
  2791  14FC  3006               	movlw	low (STR_27| (0+32768))
  2792  14FD  1283               	bcf	3,5	;RP0=0, select bank0
  2793  14FE  1303               	bcf	3,6	;RP1=0, select bank0
  2794  14FF  00A0               	movwf	clcd_print@str
  2795  1500  3091               	movlw	high (STR_27| (0+32768))
  2796  1501  00A1               	movwf	clcd_print@str+1
  2797  1502  3090               	movlw	144
  2798  1503  00A3               	movwf	??_start_stop_display
  2799  1504  0823               	movf	??_start_stop_display,w
  2800  1505  00A2               	movwf	clcd_print@addr
  2801  1506  160A  118A  240B  160A  118A  	fcall	_clcd_print
  2802  150B                     l4465:
  2803                           
  2804                           ;main.c: 156: 
  2805  150B  301F               	movlw	31
  2806  150C  1283               	bcf	3,5	;RP0=0, select bank0
  2807  150D  1303               	bcf	3,6	;RP1=0, select bank0
  2808  150E  0624               	xorwf	start_stop_display@key,w
  2809  150F  1D03               	btfss	3,2
  2810  1510  2D12               	goto	u5611
  2811  1511  2D13               	goto	u5610
  2812  1512                     u5611:
  2813  1512  2D1A               	goto	l4475
  2814  1513                     u5610:
  2815  1513                     l4467:
  2816                           
  2817                           ;main.c: 157: 
  2818  1513  160A  118A  231B  160A  118A  	fcall	_clear_scr
  2819  1518                     l4469:
  2820                           
  2821                           ;main.c: 158: 
  2822  1518  3001               	movlw	1
  2823  1519  2D23               	goto	l115
  2824  151A                     l4475:
  2825  151A  302F               	movlw	47
  2826  151B  0624               	xorwf	start_stop_display@key,w
  2827  151C  1D03               	btfss	3,2
  2828  151D  2D1F               	goto	u5621
  2829  151E  2D20               	goto	u5620
  2830  151F                     u5621:
  2831  151F  2D22               	goto	l4481
  2832  1520                     u5620:
  2833  1520                     l4477:
  2834                           
  2835                           ;main.c: 161: void wash_level_display(unsigned char key);main.c: 162: { if(reset_mode==0
      +                          x11)
  2836  1520  3004               	movlw	4
  2837  1521  2D23               	goto	l115
  2838  1522                     l4481:
  2839                           
  2840                           ;main.c: 164:      clear_scr();
  2841  1522  3003               	movlw	3
  2842  1523                     l115:
  2843  1523  0008               	return
  2844  1524                     __end_of_start_stop_display:
  2845                           
  2846                           	psect	text4
  2847  0C3F                     __ptext4:	
  2848 ;; *************** function _set_time_for_program *****************
  2849 ;; Defined at:
  2850 ;;		line 261 in file "main.c"
  2851 ;; Parameters:    Size  Location     Type
  2852 ;;		None
  2853 ;; Auto vars:     Size  Location     Type
  2854 ;;		None
  2855 ;; Return value:  Size  Location     Type
  2856 ;;                  1    wreg      void 
  2857 ;; Registers used:
  2858 ;;		wreg, fsr0l, fsr0h, status,2, status,0
  2859 ;; Tracked objects:
  2860 ;;		On entry : 0/0
  2861 ;;		On exit  : 0/0
  2862 ;;		Unchanged: 0/0
  2863 ;; Data sizes:     COMMON   BANK0   BANK1   BANK3   BANK2
  2864 ;;      Params:         0       0       0       0       0
  2865 ;;      Locals:         0       0       0       0       0
  2866 ;;      Temps:          2       0       0       0       0
  2867 ;;      Totals:         2       0       0       0       0
  2868 ;;Total ram usage:        2 bytes
  2869 ;; Hardware stack levels used: 1
  2870 ;; Hardware stack levels required when called: 1
  2871 ;; This function calls:
  2872 ;;		Nothing
  2873 ;; This function is called by:
  2874 ;;		_start_stop_display
  2875 ;; This function uses a non-reentrant model
  2876 ;;
  2877                           
  2878                           
  2879                           ;psect for function _set_time_for_program
  2880  0C3F                     _set_time_for_program:
  2881  0C3F                     l3807:	
  2882                           ;incstack = 0
  2883                           ; Regs used in _set_time_for_program: [wreg-fsr0h+status,2+status,0]
  2884                           
  2885                           
  2886                           ;main.c: 263:     switch(program_no)
  2887  0C3F  2D41               	goto	l3907
  2888  0C40                     l3809:
  2889                           
  2890                           ;main.c: 269:                     sec=33;
  2891  0C40  3021               	movlw	33
  2892  0C41  00F3               	movwf	??_set_time_for_program
  2893  0C42  0873               	movf	??_set_time_for_program,w
  2894  0C43  00F8               	movwf	_sec
  2895  0C44                     l3811:
  2896                           
  2897                           ;main.c: 270:                     min=0;
  2898  0C44  1283               	bcf	3,5	;RP0=0, select bank0
  2899  0C45  1303               	bcf	3,6	;RP1=0, select bank0
  2900  0C46  01EC               	clrf	_min
  2901                           
  2902                           ;main.c: 271:                     break;
  2903  0C47  2D6F               	goto	l198
  2904  0C48                     l3813:
  2905                           
  2906                           ;main.c: 274:                     sec=41;
  2907  0C48  3029               	movlw	41
  2908  0C49  00F3               	movwf	??_set_time_for_program
  2909  0C4A  0873               	movf	??_set_time_for_program,w
  2910  0C4B  00F8               	movwf	_sec
  2911  0C4C  2C44               	goto	l3811
  2912  0C4D                     l3817:
  2913                           
  2914                           ;main.c: 279:                     sec=45;
  2915  0C4D  302D               	movlw	45
  2916  0C4E  00F3               	movwf	??_set_time_for_program
  2917  0C4F  0873               	movf	??_set_time_for_program,w
  2918  0C50  00F8               	movwf	_sec
  2919  0C51  2C44               	goto	l3811
  2920  0C52                     l3821:
  2921  0C52  0879               	movf	_level_no,w
  2922  0C53  00F3               	movwf	??_set_time_for_program
  2923  0C54  01F4               	clrf	??_set_time_for_program+1
  2924                           
  2925                           ; Switch on 2 bytes has been partitioned into a top level switch of size 1, and 1 sub-sw
      +                          itches
  2926                           ; Switch size 1, requested type "simple"
  2927                           ; Number of cases is 1, Range of values is 0 to 0
  2928                           ; switch strategies available:
  2929                           ; Name         Instructions Cycles
  2930                           ; simple_byte            4     3 (average)
  2931                           ; direct_byte           11     8 (fixed)
  2932                           ; jumptable            260     6 (fixed)
  2933                           ;	Chosen strategy is simple_byte
  2934  0C55  0874               	movf	??_set_time_for_program+1,w
  2935  0C56  3A00               	xorlw	0	; case 0
  2936  0C57  1903               	skipnz
  2937  0C58  2C5A               	goto	l4833
  2938  0C59  2D6F               	goto	l198
  2939  0C5A                     l4833:
  2940                           
  2941                           ; Switch size 1, requested type "simple"
  2942                           ; Number of cases is 5, Range of values is 0 to 4
  2943                           ; switch strategies available:
  2944                           ; Name         Instructions Cycles
  2945                           ; simple_byte           16     9 (average)
  2946                           ; direct_byte           23     8 (fixed)
  2947                           ; jumptable            260     6 (fixed)
  2948                           ;	Chosen strategy is simple_byte
  2949  0C5A  0873               	movf	??_set_time_for_program,w
  2950  0C5B  3A00               	xorlw	0	; case 0
  2951  0C5C  1903               	skipnz
  2952  0C5D  2C48               	goto	l3813
  2953  0C5E  3A01               	xorlw	1	; case 1
  2954  0C5F  1903               	skipnz
  2955  0C60  2C40               	goto	l3809
  2956  0C61  3A03               	xorlw	3	; case 2
  2957  0C62  1903               	skipnz
  2958  0C63  2C48               	goto	l3813
  2959  0C64  3A01               	xorlw	1	; case 3
  2960  0C65  1903               	skipnz
  2961  0C66  2C4D               	goto	l3817
  2962  0C67  3A07               	xorlw	7	; case 4
  2963  0C68  1903               	skipnz
  2964  0C69  2C4D               	goto	l3817
  2965  0C6A  2D6F               	goto	l198
  2966  0C6B                     l3823:
  2967                           
  2968                           ;main.c: 288:                     sec=43;
  2969  0C6B  302B               	movlw	43
  2970  0C6C  00F3               	movwf	??_set_time_for_program
  2971  0C6D  0873               	movf	??_set_time_for_program,w
  2972  0C6E  00F8               	movwf	_sec
  2973  0C6F  2C44               	goto	l3811
  2974  0C70                     l3827:
  2975                           
  2976                           ;main.c: 293:                     sec=50;
  2977  0C70  3032               	movlw	50
  2978  0C71  00F3               	movwf	??_set_time_for_program
  2979  0C72  0873               	movf	??_set_time_for_program,w
  2980  0C73  00F8               	movwf	_sec
  2981  0C74  2C44               	goto	l3811
  2982  0C75                     l3831:
  2983                           
  2984                           ;main.c: 299:                     sec=57;
  2985  0C75  3039               	movlw	57
  2986  0C76  00F3               	movwf	??_set_time_for_program
  2987  0C77  0873               	movf	??_set_time_for_program,w
  2988  0C78  00F8               	movwf	_sec
  2989  0C79  2C44               	goto	l3811
  2990  0C7A                     l3835:
  2991  0C7A  0879               	movf	_level_no,w
  2992  0C7B  00F3               	movwf	??_set_time_for_program
  2993  0C7C  01F4               	clrf	??_set_time_for_program+1
  2994                           
  2995                           ; Switch on 2 bytes has been partitioned into a top level switch of size 1, and 1 sub-sw
      +                          itches
  2996                           ; Switch size 1, requested type "simple"
  2997                           ; Number of cases is 1, Range of values is 0 to 0
  2998                           ; switch strategies available:
  2999                           ; Name         Instructions Cycles
  3000                           ; simple_byte            4     3 (average)
  3001                           ; direct_byte           11     8 (fixed)
  3002                           ; jumptable            260     6 (fixed)
  3003                           ;	Chosen strategy is simple_byte
  3004  0C7D  0874               	movf	??_set_time_for_program+1,w
  3005  0C7E  3A00               	xorlw	0	; case 0
  3006  0C7F  1903               	skipnz
  3007  0C80  2C82               	goto	l4835
  3008  0C81  2D6F               	goto	l198
  3009  0C82                     l4835:
  3010                           
  3011                           ; Switch size 1, requested type "simple"
  3012                           ; Number of cases is 5, Range of values is 0 to 4
  3013                           ; switch strategies available:
  3014                           ; Name         Instructions Cycles
  3015                           ; simple_byte           16     9 (average)
  3016                           ; direct_byte           23     8 (fixed)
  3017                           ; jumptable            260     6 (fixed)
  3018                           ;	Chosen strategy is simple_byte
  3019  0C82  0873               	movf	??_set_time_for_program,w
  3020  0C83  3A00               	xorlw	0	; case 0
  3021  0C84  1903               	skipnz
  3022  0C85  2C70               	goto	l3827
  3023  0C86  3A01               	xorlw	1	; case 1
  3024  0C87  1903               	skipnz
  3025  0C88  2C6B               	goto	l3823
  3026  0C89  3A03               	xorlw	3	; case 2
  3027  0C8A  1903               	skipnz
  3028  0C8B  2C70               	goto	l3827
  3029  0C8C  3A01               	xorlw	1	; case 3
  3030  0C8D  1903               	skipnz
  3031  0C8E  2C75               	goto	l3831
  3032  0C8F  3A07               	xorlw	7	; case 4
  3033  0C90  1903               	skipnz
  3034  0C91  2C75               	goto	l3831
  3035  0C92  2D6F               	goto	l198
  3036  0C93                     l3837:
  3037                           
  3038                           ;main.c: 309:                     sec=26;
  3039  0C93  301A               	movlw	26
  3040  0C94  00F3               	movwf	??_set_time_for_program
  3041  0C95  0873               	movf	??_set_time_for_program,w
  3042  0C96  00F8               	movwf	_sec
  3043  0C97  2C44               	goto	l3811
  3044  0C98                     l3841:
  3045                           
  3046                           ;main.c: 315:                     sec=31;
  3047  0C98  301F               	movlw	31
  3048  0C99  00F3               	movwf	??_set_time_for_program
  3049  0C9A  0873               	movf	??_set_time_for_program,w
  3050  0C9B  00F8               	movwf	_sec
  3051  0C9C  2C44               	goto	l3811
  3052  0C9D                     l3845:
  3053  0C9D  0879               	movf	_level_no,w
  3054  0C9E  00F3               	movwf	??_set_time_for_program
  3055  0C9F  01F4               	clrf	??_set_time_for_program+1
  3056                           
  3057                           ; Switch on 2 bytes has been partitioned into a top level switch of size 1, and 1 sub-sw
      +                          itches
  3058                           ; Switch size 1, requested type "simple"
  3059                           ; Number of cases is 1, Range of values is 0 to 0
  3060                           ; switch strategies available:
  3061                           ; Name         Instructions Cycles
  3062                           ; simple_byte            4     3 (average)
  3063                           ; direct_byte           11     8 (fixed)
  3064                           ; jumptable            260     6 (fixed)
  3065                           ;	Chosen strategy is simple_byte
  3066  0CA0  0874               	movf	??_set_time_for_program+1,w
  3067  0CA1  3A00               	xorlw	0	; case 0
  3068  0CA2  1903               	skipnz
  3069  0CA3  2CA5               	goto	l4837
  3070  0CA4  2D6F               	goto	l198
  3071  0CA5                     l4837:
  3072                           
  3073                           ; Switch size 1, requested type "simple"
  3074                           ; Number of cases is 5, Range of values is 0 to 4
  3075                           ; switch strategies available:
  3076                           ; Name         Instructions Cycles
  3077                           ; simple_byte           16     9 (average)
  3078                           ; direct_byte           23     8 (fixed)
  3079                           ; jumptable            260     6 (fixed)
  3080                           ;	Chosen strategy is simple_byte
  3081  0CA5  0873               	movf	??_set_time_for_program,w
  3082  0CA6  3A00               	xorlw	0	; case 0
  3083  0CA7  1903               	skipnz
  3084  0CA8  2C93               	goto	l3837
  3085  0CA9  3A01               	xorlw	1	; case 1
  3086  0CAA  1903               	skipnz
  3087  0CAB  2C93               	goto	l3837
  3088  0CAC  3A03               	xorlw	3	; case 2
  3089  0CAD  1903               	skipnz
  3090  0CAE  2C93               	goto	l3837
  3091  0CAF  3A01               	xorlw	1	; case 3
  3092  0CB0  1903               	skipnz
  3093  0CB1  2C98               	goto	l3841
  3094  0CB2  3A07               	xorlw	7	; case 4
  3095  0CB3  1903               	skipnz
  3096  0CB4  2C98               	goto	l3841
  3097  0CB5  2D6F               	goto	l198
  3098  0CB6                     l3847:
  3099                           
  3100                           ;main.c: 320:             sec=16;
  3101  0CB6  3010               	movlw	16
  3102  0CB7  00F3               	movwf	??_set_time_for_program
  3103  0CB8  0873               	movf	??_set_time_for_program,w
  3104  0CB9  00F8               	movwf	_sec
  3105  0CBA                     l3849:
  3106                           
  3107                           ;main.c: 321:             min=1;
  3108  0CBA  1283               	bcf	3,5	;RP0=0, select bank0
  3109  0CBB  1303               	bcf	3,6	;RP1=0, select bank0
  3110  0CBC  01EC               	clrf	_min
  3111  0CBD  0AEC               	incf	_min,f
  3112                           
  3113                           ;main.c: 322:             break;
  3114  0CBE  2D6F               	goto	l198
  3115  0CBF                     l3851:
  3116                           
  3117                           ;main.c: 324:             sec=36;
  3118  0CBF  3024               	movlw	36
  3119  0CC0  00F3               	movwf	??_set_time_for_program
  3120  0CC1  0873               	movf	??_set_time_for_program,w
  3121  0CC2  00F8               	movwf	_sec
  3122  0CC3  2CBA               	goto	l3849
  3123  0CC4                     l3855:
  3124                           
  3125                           ;main.c: 328:             sec=28;
  3126  0CC4  301C               	movlw	28
  3127  0CC5  00F3               	movwf	??_set_time_for_program
  3128  0CC6  0873               	movf	??_set_time_for_program,w
  3129  0CC7  00F8               	movwf	_sec
  3130  0CC8  2C44               	goto	l3811
  3131  0CC9                     l3859:
  3132                           
  3133                           ;main.c: 332:             sec=29;
  3134  0CC9  301D               	movlw	29
  3135  0CCA  00F3               	movwf	??_set_time_for_program
  3136  0CCB  0873               	movf	??_set_time_for_program,w
  3137  0CCC  00F8               	movwf	_sec
  3138                           
  3139                           ;main.c: 333:             break;
  3140  0CCD  2D6F               	goto	l198
  3141  0CCE                     l3861:
  3142                           
  3143                           ;main.c: 338:                     sec=46;
  3144  0CCE  302E               	movlw	46
  3145  0CCF  00F3               	movwf	??_set_time_for_program
  3146  0CD0  0873               	movf	??_set_time_for_program,w
  3147  0CD1  00F8               	movwf	_sec
  3148  0CD2  2C44               	goto	l3811
  3149  0CD3                     l3865:
  3150                           
  3151                           ;main.c: 343:                     sec=53;
  3152  0CD3  3035               	movlw	53
  3153  0CD4  00F3               	movwf	??_set_time_for_program
  3154  0CD5  0873               	movf	??_set_time_for_program,w
  3155  0CD6  00F8               	movwf	_sec
  3156  0CD7  2C44               	goto	l3811
  3157  0CD8                     l3869:
  3158                           
  3159                           ;main.c: 349:                     sec=60;
  3160  0CD8  303C               	movlw	60
  3161  0CD9  00F3               	movwf	??_set_time_for_program
  3162  0CDA  0873               	movf	??_set_time_for_program,w
  3163  0CDB  00F8               	movwf	_sec
  3164  0CDC  2C44               	goto	l3811
  3165  0CDD                     l3873:
  3166  0CDD  0879               	movf	_level_no,w
  3167  0CDE  00F3               	movwf	??_set_time_for_program
  3168  0CDF  01F4               	clrf	??_set_time_for_program+1
  3169                           
  3170                           ; Switch on 2 bytes has been partitioned into a top level switch of size 1, and 1 sub-sw
      +                          itches
  3171                           ; Switch size 1, requested type "simple"
  3172                           ; Number of cases is 1, Range of values is 0 to 0
  3173                           ; switch strategies available:
  3174                           ; Name         Instructions Cycles
  3175                           ; simple_byte            4     3 (average)
  3176                           ; direct_byte           11     8 (fixed)
  3177                           ; jumptable            260     6 (fixed)
  3178                           ;	Chosen strategy is simple_byte
  3179  0CE0  0874               	movf	??_set_time_for_program+1,w
  3180  0CE1  3A00               	xorlw	0	; case 0
  3181  0CE2  1903               	skipnz
  3182  0CE3  2CE5               	goto	l4839
  3183  0CE4  2D6F               	goto	l198
  3184  0CE5                     l4839:
  3185                           
  3186                           ; Switch size 1, requested type "simple"
  3187                           ; Number of cases is 5, Range of values is 0 to 4
  3188                           ; switch strategies available:
  3189                           ; Name         Instructions Cycles
  3190                           ; simple_byte           16     9 (average)
  3191                           ; direct_byte           23     8 (fixed)
  3192                           ; jumptable            260     6 (fixed)
  3193                           ;	Chosen strategy is simple_byte
  3194  0CE5  0873               	movf	??_set_time_for_program,w
  3195  0CE6  3A00               	xorlw	0	; case 0
  3196  0CE7  1903               	skipnz
  3197  0CE8  2CD3               	goto	l3865
  3198  0CE9  3A01               	xorlw	1	; case 1
  3199  0CEA  1903               	skipnz
  3200  0CEB  2CCE               	goto	l3861
  3201  0CEC  3A03               	xorlw	3	; case 2
  3202  0CED  1903               	skipnz
  3203  0CEE  2CD3               	goto	l3865
  3204  0CEF  3A01               	xorlw	1	; case 3
  3205  0CF0  1903               	skipnz
  3206  0CF1  2CD8               	goto	l3869
  3207  0CF2  3A07               	xorlw	7	; case 4
  3208  0CF3  1903               	skipnz
  3209  0CF4  2CD8               	goto	l3869
  3210  0CF5  2D6F               	goto	l198
  3211  0CF6                     l3875:
  3212                           
  3213                           ;main.c: 357:                     sec=18;
  3214  0CF6  3012               	movlw	18
  3215  0CF7  00F3               	movwf	??_set_time_for_program
  3216  0CF8  0873               	movf	??_set_time_for_program,w
  3217  0CF9  00F8               	movwf	_sec
  3218  0CFA  2C44               	goto	l3811
  3219  0CFB                     l186:	
  3220                           ;main.c: 362:                 case 3:
  3221                           
  3222  0CFB                     l3879:
  3223                           
  3224                           ;main.c: 365:                     sec=20;
  3225  0CFB  3014               	movlw	20
  3226  0CFC  00F3               	movwf	??_set_time_for_program
  3227  0CFD  0873               	movf	??_set_time_for_program,w
  3228  0CFE  00F8               	movwf	_sec
  3229  0CFF  2C44               	goto	l3811
  3230  0D00                     l3883:
  3231  0D00  0879               	movf	_level_no,w
  3232  0D01  00F3               	movwf	??_set_time_for_program
  3233  0D02  01F4               	clrf	??_set_time_for_program+1
  3234                           
  3235                           ; Switch on 2 bytes has been partitioned into a top level switch of size 1, and 1 sub-sw
      +                          itches
  3236                           ; Switch size 1, requested type "simple"
  3237                           ; Number of cases is 1, Range of values is 0 to 0
  3238                           ; switch strategies available:
  3239                           ; Name         Instructions Cycles
  3240                           ; simple_byte            4     3 (average)
  3241                           ; direct_byte           11     8 (fixed)
  3242                           ; jumptable            260     6 (fixed)
  3243                           ;	Chosen strategy is simple_byte
  3244  0D03  0874               	movf	??_set_time_for_program+1,w
  3245  0D04  3A00               	xorlw	0	; case 0
  3246  0D05  1903               	skipnz
  3247  0D06  2D08               	goto	l4841
  3248  0D07  2D6F               	goto	l198
  3249  0D08                     l4841:
  3250                           
  3251                           ; Switch size 1, requested type "simple"
  3252                           ; Number of cases is 5, Range of values is 0 to 4
  3253                           ; switch strategies available:
  3254                           ; Name         Instructions Cycles
  3255                           ; simple_byte           16     9 (average)
  3256                           ; direct_byte           23     8 (fixed)
  3257                           ; jumptable            260     6 (fixed)
  3258                           ;	Chosen strategy is simple_byte
  3259  0D08  0873               	movf	??_set_time_for_program,w
  3260  0D09  3A00               	xorlw	0	; case 0
  3261  0D0A  1903               	skipnz
  3262  0D0B  2CFB               	goto	l186
  3263  0D0C  3A01               	xorlw	1	; case 1
  3264  0D0D  1903               	skipnz
  3265  0D0E  2CF6               	goto	l3875
  3266  0D0F  3A03               	xorlw	3	; case 2
  3267  0D10  1903               	skipnz
  3268  0D11  2CFB               	goto	l3879
  3269  0D12  3A01               	xorlw	1	; case 3
  3270  0D13  1903               	skipnz
  3271  0D14  2CFB               	goto	l3879
  3272  0D15  3A07               	xorlw	7	; case 4
  3273  0D16  1903               	skipnz
  3274  0D17  2CFB               	goto	l3879
  3275  0D18  2D6F               	goto	l198
  3276  0D19                     l3885:
  3277                           
  3278                           ;main.c: 370:             sec=6;
  3279  0D19  3006               	movlw	6
  3280  0D1A  00F3               	movwf	??_set_time_for_program
  3281  0D1B  0873               	movf	??_set_time_for_program,w
  3282  0D1C  00F8               	movwf	_sec
  3283  0D1D  2C44               	goto	l3811
  3284  0D1E                     l3891:
  3285                           
  3286                           ;main.c: 380:                     sec=16;
  3287  0D1E  3010               	movlw	16
  3288  0D1F  00F3               	movwf	??_set_time_for_program
  3289  0D20  0873               	movf	??_set_time_for_program,w
  3290  0D21  00F8               	movwf	_sec
  3291  0D22  2C44               	goto	l3811
  3292  0D23                     l3895:
  3293                           
  3294                           ;main.c: 385:                     sec=21;
  3295  0D23  3015               	movlw	21
  3296  0D24  00F3               	movwf	??_set_time_for_program
  3297  0D25  0873               	movf	??_set_time_for_program,w
  3298  0D26  00F8               	movwf	_sec
  3299  0D27  2C44               	goto	l3811
  3300  0D28                     l3903:
  3301  0D28  0879               	movf	_level_no,w
  3302  0D29  00F3               	movwf	??_set_time_for_program
  3303  0D2A  01F4               	clrf	??_set_time_for_program+1
  3304                           
  3305                           ; Switch on 2 bytes has been partitioned into a top level switch of size 1, and 1 sub-sw
      +                          itches
  3306                           ; Switch size 1, requested type "simple"
  3307                           ; Number of cases is 1, Range of values is 0 to 0
  3308                           ; switch strategies available:
  3309                           ; Name         Instructions Cycles
  3310                           ; simple_byte            4     3 (average)
  3311                           ; direct_byte           11     8 (fixed)
  3312                           ; jumptable            260     6 (fixed)
  3313                           ;	Chosen strategy is simple_byte
  3314  0D2B  0874               	movf	??_set_time_for_program+1,w
  3315  0D2C  3A00               	xorlw	0	; case 0
  3316  0D2D  1903               	skipnz
  3317  0D2E  2D30               	goto	l4843
  3318  0D2F  2D6F               	goto	l198
  3319  0D30                     l4843:
  3320                           
  3321                           ; Switch size 1, requested type "simple"
  3322                           ; Number of cases is 5, Range of values is 0 to 4
  3323                           ; switch strategies available:
  3324                           ; Name         Instructions Cycles
  3325                           ; simple_byte           16     9 (average)
  3326                           ; direct_byte           23     8 (fixed)
  3327                           ; jumptable            260     6 (fixed)
  3328                           ;	Chosen strategy is simple_byte
  3329  0D30  0873               	movf	??_set_time_for_program,w
  3330  0D31  3A00               	xorlw	0	; case 0
  3331  0D32  1903               	skipnz
  3332  0D33  2D23               	goto	l3895
  3333  0D34  3A01               	xorlw	1	; case 1
  3334  0D35  1903               	skipnz
  3335  0D36  2D1E               	goto	l3891
  3336  0D37  3A03               	xorlw	3	; case 2
  3337  0D38  1903               	skipnz
  3338  0D39  2D23               	goto	l3895
  3339  0D3A  3A01               	xorlw	1	; case 3
  3340  0D3B  1903               	skipnz
  3341  0D3C  2C93               	goto	l3837
  3342  0D3D  3A07               	xorlw	7	; case 4
  3343  0D3E  1903               	skipnz
  3344  0D3F  2C93               	goto	l3837
  3345  0D40  2D6F               	goto	l198
  3346  0D41                     l3907:
  3347  0D41  087A               	movf	_program_no,w
  3348  0D42  00F3               	movwf	??_set_time_for_program
  3349  0D43  01F4               	clrf	??_set_time_for_program+1
  3350                           
  3351                           ; Switch on 2 bytes has been partitioned into a top level switch of size 1, and 1 sub-sw
      +                          itches
  3352                           ; Switch size 1, requested type "simple"
  3353                           ; Number of cases is 1, Range of values is 0 to 0
  3354                           ; switch strategies available:
  3355                           ; Name         Instructions Cycles
  3356                           ; simple_byte            4     3 (average)
  3357                           ; direct_byte           11     8 (fixed)
  3358                           ; jumptable            260     6 (fixed)
  3359                           ;	Chosen strategy is simple_byte
  3360  0D44  0874               	movf	??_set_time_for_program+1,w
  3361  0D45  3A00               	xorlw	0	; case 0
  3362  0D46  1903               	skipnz
  3363  0D47  2D49               	goto	l4845
  3364  0D48  2D6F               	goto	l198
  3365  0D49                     l4845:
  3366                           
  3367                           ; Switch size 1, requested type "simple"
  3368                           ; Number of cases is 12, Range of values is 0 to 11
  3369                           ; switch strategies available:
  3370                           ; Name         Instructions Cycles
  3371                           ; simple_byte           37    19 (average)
  3372                           ; direct_byte           44     8 (fixed)
  3373                           ; jumptable            260     6 (fixed)
  3374                           ;	Chosen strategy is simple_byte
  3375  0D49  0873               	movf	??_set_time_for_program,w
  3376  0D4A  3A00               	xorlw	0	; case 0
  3377  0D4B  1903               	skipnz
  3378  0D4C  2C52               	goto	l3821
  3379  0D4D  3A01               	xorlw	1	; case 1
  3380  0D4E  1903               	skipnz
  3381  0D4F  2C7A               	goto	l3835
  3382  0D50  3A03               	xorlw	3	; case 2
  3383  0D51  1903               	skipnz
  3384  0D52  2C9D               	goto	l3845
  3385  0D53  3A01               	xorlw	1	; case 3
  3386  0D54  1903               	skipnz
  3387  0D55  2CB6               	goto	l3847
  3388  0D56  3A07               	xorlw	7	; case 4
  3389  0D57  1903               	skipnz
  3390  0D58  2CBF               	goto	l3851
  3391  0D59  3A01               	xorlw	1	; case 5
  3392  0D5A  1903               	skipnz
  3393  0D5B  2CC4               	goto	l3855
  3394  0D5C  3A03               	xorlw	3	; case 6
  3395  0D5D  1903               	skipnz
  3396  0D5E  2CC9               	goto	l3859
  3397  0D5F  3A01               	xorlw	1	; case 7
  3398  0D60  1903               	skipnz
  3399  0D61  2CDD               	goto	l3873
  3400  0D62  3A0F               	xorlw	15	; case 8
  3401  0D63  1903               	skipnz
  3402  0D64  2D00               	goto	l3883
  3403  0D65  3A01               	xorlw	1	; case 9
  3404  0D66  1903               	skipnz
  3405  0D67  2D19               	goto	l3885
  3406  0D68  3A03               	xorlw	3	; case 10
  3407  0D69  1903               	skipnz
  3408  0D6A  2D28               	goto	l3903
  3409  0D6B  3A01               	xorlw	1	; case 11
  3410  0D6C  1903               	skipnz
  3411  0D6D  2D28               	goto	l3903
  3412  0D6E  2D6F               	goto	l198
  3413  0D6F                     l198:
  3414  0D6F  0008               	return
  3415  0D70                     __end_of_set_time_for_program:
  3416                           
  3417                           	psect	text5
  3418  003F                     __ptext5:	
  3419 ;; *************** function _run_program *****************
  3420 ;; Defined at:
  3421 ;;		line 427 in file "main.c"
  3422 ;; Parameters:    Size  Location     Type
  3423 ;;  key             1    wreg     unsigned char 
  3424 ;; Auto vars:     Size  Location     Type
  3425 ;;  key             1   63[BANK0 ] unsigned char 
  3426 ;; Return value:  Size  Location     Type
  3427 ;;                  1    wreg      void 
  3428 ;; Registers used:
  3429 ;;		wreg, fsr0l, fsr0h, status,2, status,0, btemp+1, pclath, cstack
  3430 ;; Tracked objects:
  3431 ;;		On entry : 0/0
  3432 ;;		On exit  : 0/0
  3433 ;;		Unchanged: 0/0
  3434 ;; Data sizes:     COMMON   BANK0   BANK1   BANK3   BANK2
  3435 ;;      Params:         0       0       0       0       0
  3436 ;;      Locals:         0       1       0       0       0
  3437 ;;      Temps:          0       7       0       0       0
  3438 ;;      Totals:         0       8       0       0       0
  3439 ;;Total ram usage:        8 bytes
  3440 ;; Hardware stack levels used: 1
  3441 ;; Hardware stack levels required when called: 4
  3442 ;; This function calls:
  3443 ;;		___awdiv
  3444 ;;		___awmod
  3445 ;;		___flge
  3446 ;;		___flmul
  3447 ;;		___flsub
  3448 ;;		___fltol
  3449 ;;		___wmul
  3450 ;;		___xxtofl
  3451 ;;		_clcd_print
  3452 ;;		_clcd_putch
  3453 ;;		_clear_scr
  3454 ;;		_door_open
  3455 ;; This function is called by:
  3456 ;;		_main
  3457 ;; This function uses a non-reentrant model
  3458 ;;
  3459                           
  3460                           
  3461                           ;psect for function _run_program
  3462  003F                     _run_program:
  3463                           
  3464                           ;incstack = 0
  3465                           ; Regs used in _run_program: [wreg-fsr0h+status,2+status,0+btemp+1+pclath+cstack]
  3466                           ;run_program@key stored from wreg
  3467  003F  1283               	bcf	3,5	;RP0=0, select bank0
  3468  0040  1303               	bcf	3,6	;RP1=0, select bank0
  3469  0041  00DF               	movwf	run_program@key
  3470  0042                     l4485:
  3471                           
  3472                           ;main.c: 427: void run_program(unsigned char key);main.c: 428: {;main.c: 430:     if(res
      +                          et_mode==0x01)
  3473  0042  036E               	decf	_reset_mode,w
  3474  0043  1D03               	btfss	3,2
  3475  0044  2846               	goto	u5631
  3476  0045  2847               	goto	u5630
  3477  0046                     u5631:
  3478  0046  2A07               	goto	l4527
  3479  0047                     u5630:
  3480  0047                     l4487:
  3481                           
  3482                           ;main.c: 431:     { clear_scr();
  3483  0047  160A  118A  231B  120A  118A  	fcall	_clear_scr
  3484  004C                     l4489:
  3485                           
  3486                           ;main.c: 432:         clcd_print("Prog:",(0x80 + 0));
  3487  004C  309A               	movlw	low (STR_35| (0+32768))
  3488  004D  1283               	bcf	3,5	;RP0=0, select bank0
  3489  004E  1303               	bcf	3,6	;RP1=0, select bank0
  3490  004F  00A0               	movwf	clcd_print@str
  3491  0050  3091               	movlw	high (STR_35| (0+32768))
  3492  0051  00A1               	movwf	clcd_print@str+1
  3493  0052  3080               	movlw	128
  3494  0053  00D8               	movwf	??_run_program
  3495  0054  0858               	movf	??_run_program,w
  3496  0055  00A2               	movwf	clcd_print@addr
  3497  0056  160A  118A  240B  120A  118A  	fcall	_clcd_print
  3498  005B                     l4491:
  3499                           
  3500                           ;main.c: 433:         clcd_print(washing_prog[program_no],(0x80 + 6));
  3501  005B  087A               	movf	_program_no,w
  3502  005C  1283               	bcf	3,5	;RP0=0, select bank0
  3503  005D  1303               	bcf	3,6	;RP1=0, select bank0
  3504  005E  00D8               	movwf	??_run_program
  3505  005F  0758               	addwf	??_run_program,w
  3506  0060  3EA0               	addlw	(low (_washing_prog| 0))& (0+255)
  3507  0061  0084               	movwf	4
  3508  0062  1383               	bcf	3,7	;select IRP bank1
  3509  0063  0800               	movf	0,w
  3510  0064  00A0               	movwf	clcd_print@str
  3511  0065  0A84               	incf	4,f
  3512  0066  0800               	movf	0,w
  3513  0067  0384               	decf	4,f
  3514  0068  00A1               	movwf	clcd_print@str+1
  3515  0069  3086               	movlw	134
  3516  006A  00DA               	movwf	??_run_program+2
  3517  006B  085A               	movf	??_run_program+2,w
  3518  006C  00A2               	movwf	clcd_print@addr
  3519  006D  160A  118A  240B  120A  118A  	fcall	_clcd_print
  3520  0072                     l4493:
  3521                           
  3522                           ;main.c: 434:         clcd_print("Time:",(0xC0 + 0));
  3523  0072  3094               	movlw	low (STR_36| (0+32768))
  3524  0073  1283               	bcf	3,5	;RP0=0, select bank0
  3525  0074  1303               	bcf	3,6	;RP1=0, select bank0
  3526  0075  00A0               	movwf	clcd_print@str
  3527  0076  3091               	movlw	high (STR_36| (0+32768))
  3528  0077  00A1               	movwf	clcd_print@str+1
  3529  0078  30C0               	movlw	192
  3530  0079  00D8               	movwf	??_run_program
  3531  007A  0858               	movf	??_run_program,w
  3532  007B  00A2               	movwf	clcd_print@addr
  3533  007C  160A  118A  240B  120A  118A  	fcall	_clcd_print
  3534  0081                     l4495:
  3535                           
  3536                           ;main.c: 438:         clcd_putch((min/10)+'0',(0xC0 + 6));
  3537  0081  30C6               	movlw	198
  3538  0082  1283               	bcf	3,5	;RP0=0, select bank0
  3539  0083  1303               	bcf	3,6	;RP1=0, select bank0
  3540  0084  00D8               	movwf	??_run_program
  3541  0085  0858               	movf	??_run_program,w
  3542  0086  00A4               	movwf	clcd_putch@addr
  3543  0087  300A               	movlw	10
  3544  0088  00F3               	movwf	___awdiv@divisor
  3545  0089  3000               	movlw	0
  3546  008A  00F4               	movwf	___awdiv@divisor+1
  3547  008B  086C               	movf	_min,w
  3548  008C  00D9               	movwf	??_run_program+1
  3549  008D  01DA               	clrf	??_run_program+2
  3550  008E  0859               	movf	??_run_program+1,w
  3551  008F  00F5               	movwf	___awdiv@dividend
  3552  0090  085A               	movf	??_run_program+2,w
  3553  0091  00F6               	movwf	___awdiv@dividend+1
  3554  0092  160A  118A  25E7  120A  118A  	fcall	___awdiv
  3555  0097  0873               	movf	?___awdiv,w
  3556  0098  3E30               	addlw	48
  3557  0099  120A  158A  2000  120A  118A  	fcall	_clcd_putch
  3558  009E                     l4497:
  3559                           
  3560                           ;main.c: 439:         clcd_putch((min%10)+'0',(0xC0 + 7));
  3561  009E  30C7               	movlw	199
  3562  009F  1283               	bcf	3,5	;RP0=0, select bank0
  3563  00A0  1303               	bcf	3,6	;RP1=0, select bank0
  3564  00A1  00D8               	movwf	??_run_program
  3565  00A2  0858               	movf	??_run_program,w
  3566  00A3  00A4               	movwf	clcd_putch@addr
  3567  00A4  300A               	movlw	10
  3568  00A5  00F3               	movwf	___awmod@divisor
  3569  00A6  3000               	movlw	0
  3570  00A7  00F4               	movwf	___awmod@divisor+1
  3571  00A8  086C               	movf	_min,w
  3572  00A9  00D9               	movwf	??_run_program+1
  3573  00AA  01DA               	clrf	??_run_program+2
  3574  00AB  0859               	movf	??_run_program+1,w
  3575  00AC  00F5               	movwf	___awmod@dividend
  3576  00AD  085A               	movf	??_run_program+2,w
  3577  00AE  00F6               	movwf	___awmod@dividend+1
  3578  00AF  160A  118A  2524  120A  118A  	fcall	___awmod
  3579  00B4  0873               	movf	?___awmod,w
  3580  00B5  3E30               	addlw	48
  3581  00B6  120A  158A  2000  120A  118A  	fcall	_clcd_putch
  3582  00BB                     l4499:
  3583                           
  3584                           ;main.c: 440:         clcd_putch(':',(0xC0 + 8));
  3585  00BB  30C8               	movlw	200
  3586  00BC  1283               	bcf	3,5	;RP0=0, select bank0
  3587  00BD  1303               	bcf	3,6	;RP1=0, select bank0
  3588  00BE  00D8               	movwf	??_run_program
  3589  00BF  0858               	movf	??_run_program,w
  3590  00C0  00A4               	movwf	clcd_putch@addr
  3591  00C1  303A               	movlw	58
  3592  00C2  120A  158A  2000  120A  118A  	fcall	_clcd_putch
  3593  00C7                     l4501:
  3594                           
  3595                           ;main.c: 441:         clcd_putch((sec/10) +'0',(0xC0 + 9));
  3596  00C7  30C9               	movlw	201
  3597  00C8  1283               	bcf	3,5	;RP0=0, select bank0
  3598  00C9  1303               	bcf	3,6	;RP1=0, select bank0
  3599  00CA  00D8               	movwf	??_run_program
  3600  00CB  0858               	movf	??_run_program,w
  3601  00CC  00A4               	movwf	clcd_putch@addr
  3602  00CD  300A               	movlw	10
  3603  00CE  00F3               	movwf	___awdiv@divisor
  3604  00CF  3000               	movlw	0
  3605  00D0  00F4               	movwf	___awdiv@divisor+1
  3606  00D1  0878               	movf	_sec,w
  3607  00D2  00D9               	movwf	??_run_program+1
  3608  00D3  01DA               	clrf	??_run_program+2
  3609  00D4  0859               	movf	??_run_program+1,w
  3610  00D5  00F5               	movwf	___awdiv@dividend
  3611  00D6  085A               	movf	??_run_program+2,w
  3612  00D7  00F6               	movwf	___awdiv@dividend+1
  3613  00D8  160A  118A  25E7  120A  118A  	fcall	___awdiv
  3614  00DD  0873               	movf	?___awdiv,w
  3615  00DE  3E30               	addlw	48
  3616  00DF  120A  158A  2000  120A  118A  	fcall	_clcd_putch
  3617  00E4                     l4503:
  3618                           
  3619                           ;main.c: 442:         clcd_putch((sec%10)+'0',(0xC0 + 10));
  3620  00E4  30CA               	movlw	202
  3621  00E5  1283               	bcf	3,5	;RP0=0, select bank0
  3622  00E6  1303               	bcf	3,6	;RP1=0, select bank0
  3623  00E7  00D8               	movwf	??_run_program
  3624  00E8  0858               	movf	??_run_program,w
  3625  00E9  00A4               	movwf	clcd_putch@addr
  3626  00EA  300A               	movlw	10
  3627  00EB  00F3               	movwf	___awmod@divisor
  3628  00EC  3000               	movlw	0
  3629  00ED  00F4               	movwf	___awmod@divisor+1
  3630  00EE  0878               	movf	_sec,w
  3631  00EF  00D9               	movwf	??_run_program+1
  3632  00F0  01DA               	clrf	??_run_program+2
  3633  00F1  0859               	movf	??_run_program+1,w
  3634  00F2  00F5               	movwf	___awmod@dividend
  3635  00F3  085A               	movf	??_run_program+2,w
  3636  00F4  00F6               	movwf	___awmod@dividend+1
  3637  00F5  160A  118A  2524  120A  118A  	fcall	___awmod
  3638  00FA  0873               	movf	?___awmod,w
  3639  00FB  3E30               	addlw	48
  3640  00FC  120A  158A  2000  120A  118A  	fcall	_clcd_putch
  3641                           
  3642                           ;main.c: 445:         clcd_print("(MM:SS)",(0x90 + 5));
  3643  0101  3070               	movlw	low (STR_37| (0+32768))
  3644  0102  1283               	bcf	3,5	;RP0=0, select bank0
  3645  0103  1303               	bcf	3,6	;RP1=0, select bank0
  3646  0104  00A0               	movwf	clcd_print@str
  3647  0105  3091               	movlw	high (STR_37| (0+32768))
  3648  0106  00A1               	movwf	clcd_print@str+1
  3649  0107  3095               	movlw	149
  3650  0108  00D8               	movwf	??_run_program
  3651  0109  0858               	movf	??_run_program,w
  3652  010A  00A2               	movwf	clcd_print@addr
  3653  010B  160A  118A  240B  120A  118A  	fcall	_clcd_print
  3654  0110                     l4505:
  3655                           
  3656                           ;main.c: 447:         _delay((unsigned long)((3000)*(20000000/4000.0)));
  3657  0110  304D               	movlw	77
  3658  0111  1283               	bcf	3,5	;RP0=0, select bank0
  3659  0112  1303               	bcf	3,6	;RP1=0, select bank0
  3660  0113  00DA               	movwf	??_run_program+2
  3661  0114  3019               	movlw	25
  3662  0115  00D9               	movwf	??_run_program+1
  3663  0116  304F               	movlw	79
  3664  0117  00D8               	movwf	??_run_program
  3665  0118                     u5847:
  3666  0118  0BD8               	decfsz	??_run_program,f
  3667  0119  2918               	goto	u5847
  3668  011A  0BD9               	decfsz	??_run_program+1,f
  3669  011B  2918               	goto	u5847
  3670  011C  0BDA               	decfsz	??_run_program+2,f
  3671  011D  2918               	goto	u5847
  3672  011E                     l4507:
  3673                           
  3674                           ;main.c: 450:          clear_scr();
  3675  011E  160A  118A  231B  120A  118A  	fcall	_clear_scr
  3676  0123                     l4509:
  3677                           
  3678                           ;main.c: 452:          clcd_print(" Function - ",(0x80 + 0));
  3679  0123  30A7               	movlw	low (STR_38| (0+32768))
  3680  0124  1283               	bcf	3,5	;RP0=0, select bank0
  3681  0125  1303               	bcf	3,6	;RP1=0, select bank0
  3682  0126  00A0               	movwf	clcd_print@str
  3683  0127  3090               	movlw	high (STR_38| (0+32768))
  3684  0128  00A1               	movwf	clcd_print@str+1
  3685  0129  3080               	movlw	128
  3686  012A  00D8               	movwf	??_run_program
  3687  012B  0858               	movf	??_run_program,w
  3688  012C  00A2               	movwf	clcd_print@addr
  3689  012D  160A  118A  240B  120A  118A  	fcall	_clcd_print
  3690  0132                     l4511:
  3691                           
  3692                           ;main.c: 453:          clcd_print(" TIME:  ",(0xC0 + 0));
  3693  0132  304C               	movlw	low (STR_39| (0+32768))
  3694  0133  1283               	bcf	3,5	;RP0=0, select bank0
  3695  0134  1303               	bcf	3,6	;RP1=0, select bank0
  3696  0135  00A0               	movwf	clcd_print@str
  3697  0136  3091               	movlw	high (STR_39| (0+32768))
  3698  0137  00A1               	movwf	clcd_print@str+1
  3699  0138  30C0               	movlw	192
  3700  0139  00D8               	movwf	??_run_program
  3701  013A  0858               	movf	??_run_program,w
  3702  013B  00A2               	movwf	clcd_print@addr
  3703  013C  160A  118A  240B  120A  118A  	fcall	_clcd_print
  3704  0141                     l4513:
  3705                           
  3706                           ;main.c: 454:          clcd_print("5-START  6-PAUSE",(0xD0 + 0));
  3707  0141  3000               	movlw	low (STR_34| (0+32768))
  3708  0142  1283               	bcf	3,5	;RP0=0, select bank0
  3709  0143  1303               	bcf	3,6	;RP1=0, select bank0
  3710  0144  00A0               	movwf	clcd_print@str
  3711  0145  3090               	movlw	high (STR_34| (0+32768))
  3712  0146  00A1               	movwf	clcd_print@str+1
  3713  0147  30D0               	movlw	208
  3714  0148  00D8               	movwf	??_run_program
  3715  0149  0858               	movf	??_run_program,w
  3716  014A  00A2               	movwf	clcd_print@addr
  3717  014B  160A  118A  240B  120A  118A  	fcall	_clcd_print
  3718  0150                     l4515:
  3719                           
  3720                           ;main.c: 458:           time=total_time=(min*60+sec);
  3721  0150  1283               	bcf	3,5	;RP0=0, select bank0
  3722  0151  1303               	bcf	3,6	;RP1=0, select bank0
  3723  0152  086C               	movf	_min,w
  3724  0153  00D8               	movwf	??_run_program
  3725  0154  01D9               	clrf	??_run_program+1
  3726  0155  0858               	movf	??_run_program,w
  3727  0156  00F3               	movwf	___wmul@multiplier
  3728  0157  0859               	movf	??_run_program+1,w
  3729  0158  00F4               	movwf	___wmul@multiplier+1
  3730  0159  303C               	movlw	60
  3731  015A  00F5               	movwf	___wmul@multiplicand
  3732  015B  3000               	movlw	0
  3733  015C  00F6               	movwf	___wmul@multiplicand+1
  3734  015D  160A  118A  23E0  120A  118A  	fcall	___wmul
  3735  0162  0878               	movf	_sec,w
  3736  0163  0773               	addwf	?___wmul,w
  3737  0164  1283               	bcf	3,5	;RP0=0, select bank0
  3738  0165  1303               	bcf	3,6	;RP1=0, select bank0
  3739  0166  00E4               	movwf	_total_time
  3740  0167  3000               	movlw	0
  3741  0168  1803               	skipnc
  3742  0169  3001               	movlw	1
  3743  016A  0774               	addwf	?___wmul+1,w
  3744  016B  00E5               	movwf	_total_time+1
  3745  016C  0865               	movf	_total_time+1,w
  3746  016D  00E3               	movwf	_time+1
  3747  016E  0864               	movf	_total_time,w
  3748  016F  00E2               	movwf	_time
  3749  0170                     l4517:
  3750                           
  3751                           ;main.c: 460:           wash_time=(int)total_time*0.46;
  3752  0170  0864               	movf	_total_time,w
  3753  0171  00F3               	movwf	___xxtofl@val
  3754  0172  0865               	movf	_total_time+1,w
  3755  0173  00F4               	movwf	___xxtofl@val+1
  3756  0174  3000               	movlw	0
  3757  0175  1BF4               	btfsc	___xxtofl@val+1,7
  3758  0176  30FF               	movlw	255
  3759  0177  00F5               	movwf	___xxtofl@val+2
  3760  0178  00F6               	movwf	___xxtofl@val+3
  3761  0179  3001               	movlw	1
  3762  017A  120A  158A  2015  120A  118A  	fcall	___xxtofl
  3763  017F  0876               	movf	?___xxtofl+3,w
  3764  0180  1283               	bcf	3,5	;RP0=0, select bank0
  3765  0181  1303               	bcf	3,6	;RP1=0, select bank0
  3766  0182  00B1               	movwf	___flmul@a+3
  3767  0183  0875               	movf	?___xxtofl+2,w
  3768  0184  00B0               	movwf	___flmul@a+2
  3769  0185  0874               	movf	?___xxtofl+1,w
  3770  0186  00AF               	movwf	___flmul@a+1
  3771  0187  0873               	movf	?___xxtofl,w
  3772  0188  00AE               	movwf	___flmul@a
  3773  0189  303E               	movlw	62
  3774  018A  00AD               	movwf	___flmul@b+3
  3775  018B  30EB               	movlw	235
  3776  018C  00AC               	movwf	___flmul@b+2
  3777  018D  3085               	movlw	133
  3778  018E  00AB               	movwf	___flmul@b+1
  3779  018F  301F               	movlw	31
  3780  0190  00AA               	movwf	___flmul@b
  3781  0191  120A  118A  243E  120A  118A  	fcall	___flmul
  3782  0196  1283               	bcf	3,5	;RP0=0, select bank0
  3783  0197  1303               	bcf	3,6	;RP1=0, select bank0
  3784  0198  082D               	movf	?___flmul+3,w
  3785  0199  00C7               	movwf	___fltol@f1+3
  3786  019A  082C               	movf	?___flmul+2,w
  3787  019B  00C6               	movwf	___fltol@f1+2
  3788  019C  082B               	movf	?___flmul+1,w
  3789  019D  00C5               	movwf	___fltol@f1+1
  3790  019E  082A               	movf	?___flmul,w
  3791  019F  00C4               	movwf	___fltol@f1
  3792  01A0  160A  118A  2650  120A  118A  	fcall	___fltol
  3793  01A5  1283               	bcf	3,5	;RP0=0, select bank0
  3794  01A6  1303               	bcf	3,6	;RP1=0, select bank0
  3795  01A7  0845               	movf	?___fltol+1,w
  3796  01A8  00E9               	movwf	_wash_time+1
  3797  01A9  0844               	movf	?___fltol,w
  3798  01AA  00E8               	movwf	_wash_time
  3799  01AB                     l4519:
  3800                           
  3801                           ;main.c: 461:           rinse_time=(int)total_time*0.12;
  3802  01AB  0864               	movf	_total_time,w
  3803  01AC  00F3               	movwf	___xxtofl@val
  3804  01AD  0865               	movf	_total_time+1,w
  3805  01AE  00F4               	movwf	___xxtofl@val+1
  3806  01AF  3000               	movlw	0
  3807  01B0  1BF4               	btfsc	___xxtofl@val+1,7
  3808  01B1  30FF               	movlw	255
  3809  01B2  00F5               	movwf	___xxtofl@val+2
  3810  01B3  00F6               	movwf	___xxtofl@val+3
  3811  01B4  3001               	movlw	1
  3812  01B5  120A  158A  2015  120A  118A  	fcall	___xxtofl
  3813  01BA  0876               	movf	?___xxtofl+3,w
  3814  01BB  1283               	bcf	3,5	;RP0=0, select bank0
  3815  01BC  1303               	bcf	3,6	;RP1=0, select bank0
  3816  01BD  00B1               	movwf	___flmul@a+3
  3817  01BE  0875               	movf	?___xxtofl+2,w
  3818  01BF  00B0               	movwf	___flmul@a+2
  3819  01C0  0874               	movf	?___xxtofl+1,w
  3820  01C1  00AF               	movwf	___flmul@a+1
  3821  01C2  0873               	movf	?___xxtofl,w
  3822  01C3  00AE               	movwf	___flmul@a
  3823  01C4  303D               	movlw	61
  3824  01C5  00AD               	movwf	___flmul@b+3
  3825  01C6  30F5               	movlw	245
  3826  01C7  00AC               	movwf	___flmul@b+2
  3827  01C8  30C2               	movlw	194
  3828  01C9  00AB               	movwf	___flmul@b+1
  3829  01CA  308F               	movlw	143
  3830  01CB  00AA               	movwf	___flmul@b
  3831  01CC  120A  118A  243E  120A  118A  	fcall	___flmul
  3832  01D1  1283               	bcf	3,5	;RP0=0, select bank0
  3833  01D2  1303               	bcf	3,6	;RP1=0, select bank0
  3834  01D3  082D               	movf	?___flmul+3,w
  3835  01D4  00C7               	movwf	___fltol@f1+3
  3836  01D5  082C               	movf	?___flmul+2,w
  3837  01D6  00C6               	movwf	___fltol@f1+2
  3838  01D7  082B               	movf	?___flmul+1,w
  3839  01D8  00C5               	movwf	___fltol@f1+1
  3840  01D9  082A               	movf	?___flmul,w
  3841  01DA  00C4               	movwf	___fltol@f1
  3842  01DB  160A  118A  2650  120A  118A  	fcall	___fltol
  3843  01E0  1283               	bcf	3,5	;RP0=0, select bank0
  3844  01E1  1303               	bcf	3,6	;RP1=0, select bank0
  3845  01E2  0845               	movf	?___fltol+1,w
  3846  01E3  00E7               	movwf	_rinse_time+1
  3847  01E4  0844               	movf	?___fltol,w
  3848  01E5  00E6               	movwf	_rinse_time
  3849  01E6                     l4521:
  3850                           
  3851                           ;main.c: 462:           spin_time=(int)(total_time-wash_time-rinse_time);
  3852  01E6  0968               	comf	_wash_time,w
  3853  01E7  00D8               	movwf	??_run_program
  3854  01E8  0969               	comf	_wash_time+1,w
  3855  01E9  00D9               	movwf	??_run_program+1
  3856  01EA  0AD8               	incf	??_run_program,f
  3857  01EB  1903               	skipnz
  3858  01EC  0AD9               	incf	??_run_program+1,f
  3859  01ED  0866               	movf	_rinse_time,w
  3860  01EE  0258               	subwf	??_run_program,w
  3861  01EF  00DA               	movwf	??_run_program+2
  3862  01F0  0867               	movf	_rinse_time+1,w
  3863  01F1  1C03               	skipc
  3864  01F2  0A67               	incf	_rinse_time+1,w
  3865  01F3  0259               	subwf	??_run_program+1,w
  3866  01F4  00DB               	movwf	??_run_program+3
  3867  01F5  0864               	movf	_total_time,w
  3868  01F6  075A               	addwf	??_run_program+2,w
  3869  01F7  1683               	bsf	3,5	;RP0=1, select bank1
  3870  01F8  1303               	bcf	3,6	;RP1=0, select bank1
  3871  01F9  00C4               	movwf	_spin_time^(0+128)
  3872  01FA  1283               	bcf	3,5	;RP0=0, select bank0
  3873  01FB  1303               	bcf	3,6	;RP1=0, select bank0
  3874  01FC  0865               	movf	_total_time+1,w
  3875  01FD  1803               	skipnc
  3876  01FE  0A65               	incf	_total_time+1,w
  3877  01FF  075B               	addwf	??_run_program+3,w
  3878  0200  1683               	bsf	3,5	;RP0=1, select bank1
  3879  0201  1303               	bcf	3,6	;RP1=0, select bank1
  3880  0202  00C5               	movwf	(_spin_time+1)^(0+128)
  3881  0203                     l4523:
  3882                           
  3883                           ;main.c: 465:           TMR2ON=1;
  3884  0203  1283               	bcf	3,5	;RP0=0, select bank0
  3885  0204  1303               	bcf	3,6	;RP1=0, select bank0
  3886  0205  1512               	bsf	18,2	;volatile
  3887  0206                     l4525:
  3888                           
  3889                           ;main.c: 467:           RC2 = 1;
  3890  0206  1507               	bsf	7,2	;volatile
  3891  0207                     l4527:
  3892                           
  3893                           ;main.c: 471:     door_open();
  3894  0207  160A  118A  257F  120A  118A  	fcall	_door_open
  3895  020C                     l4529:
  3896                           
  3897                           ;main.c: 472:     if(key==0x1F)
  3898  020C  301F               	movlw	31
  3899  020D  1283               	bcf	3,5	;RP0=0, select bank0
  3900  020E  1303               	bcf	3,6	;RP1=0, select bank0
  3901  020F  065F               	xorwf	run_program@key,w
  3902  0210  1D03               	btfss	3,2
  3903  0211  2A13               	goto	u5641
  3904  0212  2A14               	goto	u5640
  3905  0213                     u5641:
  3906  0213  2A1B               	goto	l4535
  3907  0214                     u5640:
  3908  0214                     l4531:
  3909                           
  3910                           ;main.c: 473:     {;main.c: 474:         TMR2ON=0;
  3911  0214  1112               	bcf	18,2	;volatile
  3912                           
  3913                           ;main.c: 475:         RC2=0;
  3914  0215  1107               	bcf	7,2	;volatile
  3915  0216                     l4533:
  3916                           
  3917                           ;main.c: 476:         operation_mode=0x05;
  3918  0216  3005               	movlw	5
  3919  0217  00D8               	movwf	??_run_program
  3920  0218  0858               	movf	??_run_program,w
  3921  0219  00ED               	movwf	_operation_mode
  3922                           
  3923                           ;main.c: 477:     }
  3924  021A  2C3D               	goto	l225
  3925  021B                     l4535:
  3926                           
  3927                           ;main.c: 480:      total_time=(min*60+sec);
  3928  021B  086C               	movf	_min,w
  3929  021C  00D8               	movwf	??_run_program
  3930  021D  01D9               	clrf	??_run_program+1
  3931  021E  0858               	movf	??_run_program,w
  3932  021F  00F3               	movwf	___wmul@multiplier
  3933  0220  0859               	movf	??_run_program+1,w
  3934  0221  00F4               	movwf	___wmul@multiplier+1
  3935  0222  303C               	movlw	60
  3936  0223  00F5               	movwf	___wmul@multiplicand
  3937  0224  3000               	movlw	0
  3938  0225  00F6               	movwf	___wmul@multiplicand+1
  3939  0226  160A  118A  23E0  120A  118A  	fcall	___wmul
  3940  022B  0878               	movf	_sec,w
  3941  022C  0773               	addwf	?___wmul,w
  3942  022D  1283               	bcf	3,5	;RP0=0, select bank0
  3943  022E  1303               	bcf	3,6	;RP1=0, select bank0
  3944  022F  00E4               	movwf	_total_time
  3945  0230  3000               	movlw	0
  3946  0231  1803               	skipnc
  3947  0232  3001               	movlw	1
  3948  0233  0774               	addwf	?___wmul+1,w
  3949  0234  00E5               	movwf	_total_time+1
  3950  0235                     l4537:
  3951                           
  3952                           ;main.c: 481:      if(program_no<=7)
  3953  0235  3008               	movlw	8
  3954  0236  027A               	subwf	_program_no,w
  3955  0237  1803               	skipnc
  3956  0238  2A3A               	goto	u5651
  3957  0239  2A3B               	goto	u5650
  3958  023A                     u5651:
  3959  023A  2AA8               	goto	l4549
  3960  023B                     u5650:
  3961  023B                     l4539:
  3962                           
  3963                           ;main.c: 482:      { if(total_time>=(time-wash_time))
  3964  023B  0868               	movf	_wash_time,w
  3965  023C  0262               	subwf	_time,w
  3966  023D  00D8               	movwf	??_run_program
  3967  023E  0869               	movf	_wash_time+1,w
  3968  023F  1C03               	skipc
  3969  0240  0A69               	incf	_wash_time+1,w
  3970  0241  0263               	subwf	_time+1,w
  3971  0242  00D9               	movwf	??_run_program+1
  3972  0243  0865               	movf	_total_time+1,w
  3973  0244  3A80               	xorlw	128
  3974  0245  00DA               	movwf	??_run_program+2
  3975  0246  0859               	movf	??_run_program+1,w
  3976  0247  3A80               	xorlw	128
  3977  0248  025A               	subwf	??_run_program+2,w
  3978  0249  1D03               	skipz
  3979  024A  2A4D               	goto	u5665
  3980  024B  0858               	movf	??_run_program,w
  3981  024C  0264               	subwf	_total_time,w
  3982  024D                     u5665:
  3983  024D  1C03               	skipc
  3984  024E  2A50               	goto	u5661
  3985  024F  2A51               	goto	u5660
  3986  0250                     u5661:
  3987  0250  2A61               	goto	l4543
  3988  0251                     u5660:
  3989  0251                     l4541:
  3990                           
  3991                           ;main.c: 483:         {;main.c: 484:             clcd_print("Wash",(0x80 + 10));
  3992  0251  301F               	movlw	low ((STR_5+5)| (0+32768))
  3993  0252  1283               	bcf	3,5	;RP0=0, select bank0
  3994  0253  1303               	bcf	3,6	;RP1=0, select bank0
  3995  0254  00A0               	movwf	clcd_print@str
  3996  0255  3091               	movlw	high ((STR_5+5)| (0+32768))
  3997  0256  00A1               	movwf	clcd_print@str+1
  3998  0257  308A               	movlw	138
  3999  0258  00D8               	movwf	??_run_program
  4000  0259  0858               	movf	??_run_program,w
  4001  025A  00A2               	movwf	clcd_print@addr
  4002  025B  160A  118A  240B  120A  118A  	fcall	_clcd_print
  4003                           
  4004                           ;main.c: 485:         }
  4005  0260  2B6F               	goto	l4565
  4006  0261                     l4543:
  4007  0261  1283               	bcf	3,5	;RP0=0, select bank0
  4008  0262  1303               	bcf	3,6	;RP1=0, select bank0
  4009  0263  0968               	comf	_wash_time,w
  4010  0264  00D8               	movwf	??_run_program
  4011  0265  0969               	comf	_wash_time+1,w
  4012  0266  00D9               	movwf	??_run_program+1
  4013  0267  0AD8               	incf	??_run_program,f
  4014  0268  1903               	skipnz
  4015  0269  0AD9               	incf	??_run_program+1,f
  4016  026A  0866               	movf	_rinse_time,w
  4017  026B  0258               	subwf	??_run_program,w
  4018  026C  00DA               	movwf	??_run_program+2
  4019  026D  0867               	movf	_rinse_time+1,w
  4020  026E  1C03               	skipc
  4021  026F  0A67               	incf	_rinse_time+1,w
  4022  0270  0259               	subwf	??_run_program+1,w
  4023  0271  00DB               	movwf	??_run_program+3
  4024  0272  0862               	movf	_time,w
  4025  0273  075A               	addwf	??_run_program+2,w
  4026  0274  00DC               	movwf	??_run_program+4
  4027  0275  0863               	movf	_time+1,w
  4028  0276  1803               	skipnc
  4029  0277  0A63               	incf	_time+1,w
  4030  0278  075B               	addwf	??_run_program+3,w
  4031  0279  00DD               	movwf	??_run_program+5
  4032  027A  0865               	movf	_total_time+1,w
  4033  027B  3A80               	xorlw	128
  4034  027C  00DE               	movwf	??_run_program+6
  4035  027D  085D               	movf	??_run_program+5,w
  4036  027E  3A80               	xorlw	128
  4037  027F  025E               	subwf	??_run_program+6,w
  4038  0280  1D03               	skipz
  4039  0281  2A84               	goto	u5675
  4040  0282  085C               	movf	??_run_program+4,w
  4041  0283  0264               	subwf	_total_time,w
  4042  0284                     u5675:
  4043  0284  1C03               	skipc
  4044  0285  2A87               	goto	u5671
  4045  0286  2A88               	goto	u5670
  4046  0287                     u5671:
  4047  0287  2A98               	goto	l4547
  4048  0288                     u5670:
  4049  0288                     l4545:
  4050                           
  4051                           ;main.c: 487:         {;main.c: 488:             clcd_print("Rinse",(0x80 + 10));
  4052  0288  30A0               	movlw	low (STR_42| (0+32768))
  4053  0289  1283               	bcf	3,5	;RP0=0, select bank0
  4054  028A  1303               	bcf	3,6	;RP1=0, select bank0
  4055  028B  00A0               	movwf	clcd_print@str
  4056  028C  3091               	movlw	high (STR_42| (0+32768))
  4057  028D  00A1               	movwf	clcd_print@str+1
  4058  028E  308A               	movlw	138
  4059  028F  00D8               	movwf	??_run_program
  4060  0290  0858               	movf	??_run_program,w
  4061  0291  00A2               	movwf	clcd_print@addr
  4062  0292  160A  118A  240B  120A  118A  	fcall	_clcd_print
  4063                           
  4064                           ;main.c: 489:         }
  4065  0297  2B6F               	goto	l4565
  4066  0298                     l4547:
  4067                           
  4068                           ;main.c: 491:              clcd_print("Spin ",(0x80 + 10));
  4069  0298  308E               	movlw	low (STR_43| (0+32768))
  4070  0299  1283               	bcf	3,5	;RP0=0, select bank0
  4071  029A  1303               	bcf	3,6	;RP1=0, select bank0
  4072  029B  00A0               	movwf	clcd_print@str
  4073  029C  3091               	movlw	high (STR_43| (0+32768))
  4074  029D  00A1               	movwf	clcd_print@str+1
  4075  029E  308A               	movlw	138
  4076  029F  00D8               	movwf	??_run_program
  4077  02A0  0858               	movf	??_run_program,w
  4078  02A1  00A2               	movwf	clcd_print@addr
  4079  02A2  160A  118A  240B  120A  118A  	fcall	_clcd_print
  4080  02A7  2B6F               	goto	l4565
  4081  02A8                     l4549:
  4082  02A8  3008               	movlw	8
  4083  02A9  067A               	xorwf	_program_no,w
  4084  02AA  1D03               	btfss	3,2
  4085  02AB  2AAD               	goto	u5681
  4086  02AC  2AAE               	goto	u5680
  4087  02AD                     u5681:
  4088  02AD  2B48               	goto	l4557
  4089  02AE                     u5680:
  4090  02AE                     l4551:
  4091                           
  4092                           ;main.c: 494:      {;main.c: 495:          if(total_time>=(time-(0.40*time)))
  4093  02AE  0864               	movf	_total_time,w
  4094  02AF  00F3               	movwf	___xxtofl@val
  4095  02B0  0865               	movf	_total_time+1,w
  4096  02B1  00F4               	movwf	___xxtofl@val+1
  4097  02B2  3000               	movlw	0
  4098  02B3  1BF4               	btfsc	___xxtofl@val+1,7
  4099  02B4  30FF               	movlw	255
  4100  02B5  00F5               	movwf	___xxtofl@val+2
  4101  02B6  00F6               	movwf	___xxtofl@val+3
  4102  02B7  3001               	movlw	1
  4103  02B8  120A  158A  2015  120A  118A  	fcall	___xxtofl
  4104  02BD  0876               	movf	?___xxtofl+3,w
  4105  02BE  1283               	bcf	3,5	;RP0=0, select bank0
  4106  02BF  1303               	bcf	3,6	;RP1=0, select bank0
  4107  02C0  00CF               	movwf	___flge@ff1+3
  4108  02C1  0875               	movf	?___xxtofl+2,w
  4109  02C2  00CE               	movwf	___flge@ff1+2
  4110  02C3  0874               	movf	?___xxtofl+1,w
  4111  02C4  00CD               	movwf	___flge@ff1+1
  4112  02C5  0873               	movf	?___xxtofl,w
  4113  02C6  00CC               	movwf	___flge@ff1
  4114  02C7  0862               	movf	_time,w
  4115  02C8  00F3               	movwf	___xxtofl@val
  4116  02C9  0863               	movf	_time+1,w
  4117  02CA  00F4               	movwf	___xxtofl@val+1
  4118  02CB  3000               	movlw	0
  4119  02CC  1BF4               	btfsc	___xxtofl@val+1,7
  4120  02CD  30FF               	movlw	255
  4121  02CE  00F5               	movwf	___xxtofl@val+2
  4122  02CF  00F6               	movwf	___xxtofl@val+3
  4123  02D0  3001               	movlw	1
  4124  02D1  120A  158A  2015  120A  118A  	fcall	___xxtofl
  4125  02D6  0876               	movf	?___xxtofl+3,w
  4126  02D7  1283               	bcf	3,5	;RP0=0, select bank0
  4127  02D8  1303               	bcf	3,6	;RP1=0, select bank0
  4128  02D9  00CB               	movwf	___flsub@b+3
  4129  02DA  0875               	movf	?___xxtofl+2,w
  4130  02DB  00CA               	movwf	___flsub@b+2
  4131  02DC  0874               	movf	?___xxtofl+1,w
  4132  02DD  00C9               	movwf	___flsub@b+1
  4133  02DE  0873               	movf	?___xxtofl,w
  4134  02DF  00C8               	movwf	___flsub@b
  4135  02E0  0862               	movf	_time,w
  4136  02E1  00F3               	movwf	___xxtofl@val
  4137  02E2  0863               	movf	_time+1,w
  4138  02E3  00F4               	movwf	___xxtofl@val+1
  4139  02E4  3000               	movlw	0
  4140  02E5  1BF4               	btfsc	___xxtofl@val+1,7
  4141  02E6  30FF               	movlw	255
  4142  02E7  00F5               	movwf	___xxtofl@val+2
  4143  02E8  00F6               	movwf	___xxtofl@val+3
  4144  02E9  3001               	movlw	1
  4145  02EA  120A  158A  2015  120A  118A  	fcall	___xxtofl
  4146  02EF  0876               	movf	?___xxtofl+3,w
  4147  02F0  1283               	bcf	3,5	;RP0=0, select bank0
  4148  02F1  1303               	bcf	3,6	;RP1=0, select bank0
  4149  02F2  00B1               	movwf	___flmul@a+3
  4150  02F3  0875               	movf	?___xxtofl+2,w
  4151  02F4  00B0               	movwf	___flmul@a+2
  4152  02F5  0874               	movf	?___xxtofl+1,w
  4153  02F6  00AF               	movwf	___flmul@a+1
  4154  02F7  0873               	movf	?___xxtofl,w
  4155  02F8  00AE               	movwf	___flmul@a
  4156  02F9  303E               	movlw	62
  4157  02FA  00AD               	movwf	___flmul@b+3
  4158  02FB  30CC               	movlw	204
  4159  02FC  00AC               	movwf	___flmul@b+2
  4160  02FD  30CC               	movlw	204
  4161  02FE  00AB               	movwf	___flmul@b+1
  4162  02FF  30CD               	movlw	205
  4163  0300  00AA               	movwf	___flmul@b
  4164  0301  120A  118A  243E  120A  118A  	fcall	___flmul
  4165  0306  1283               	bcf	3,5	;RP0=0, select bank0
  4166  0307  1303               	bcf	3,6	;RP1=0, select bank0
  4167  0308  082D               	movf	?___flmul+3,w
  4168  0309  00C7               	movwf	___flsub@a+3
  4169  030A  082C               	movf	?___flmul+2,w
  4170  030B  00C6               	movwf	___flsub@a+2
  4171  030C  082B               	movf	?___flmul+1,w
  4172  030D  00C5               	movwf	___flsub@a+1
  4173  030E  082A               	movf	?___flmul,w
  4174  030F  00C4               	movwf	___flsub@a
  4175  0310  160A  118A  2393  120A  118A  	fcall	___flsub
  4176  0315  1283               	bcf	3,5	;RP0=0, select bank0
  4177  0316  1303               	bcf	3,6	;RP1=0, select bank0
  4178  0317  0847               	movf	?___flsub+3,w
  4179  0318  00D3               	movwf	___flge@ff2+3
  4180  0319  0846               	movf	?___flsub+2,w
  4181  031A  00D2               	movwf	___flge@ff2+2
  4182  031B  0845               	movf	?___flsub+1,w
  4183  031C  00D1               	movwf	___flge@ff2+1
  4184  031D  0844               	movf	?___flsub,w
  4185  031E  00D0               	movwf	___flge@ff2
  4186  031F  160A  118A  275C  120A  118A  	fcall	___flge
  4187  0324  1C03               	btfss	3,0
  4188  0325  2B27               	goto	u5691
  4189  0326  2B28               	goto	u5690
  4190  0327                     u5691:
  4191  0327  2B38               	goto	l4555
  4192  0328                     u5690:
  4193  0328                     l4553:
  4194                           
  4195                           ;main.c: 496:              clcd_print("Rinse",(0x80 + 10));
  4196  0328  30A0               	movlw	low (STR_42| (0+32768))
  4197  0329  1283               	bcf	3,5	;RP0=0, select bank0
  4198  032A  1303               	bcf	3,6	;RP1=0, select bank0
  4199  032B  00A0               	movwf	clcd_print@str
  4200  032C  3091               	movlw	high (STR_42| (0+32768))
  4201  032D  00A1               	movwf	clcd_print@str+1
  4202  032E  308A               	movlw	138
  4203  032F  00D8               	movwf	??_run_program
  4204  0330  0858               	movf	??_run_program,w
  4205  0331  00A2               	movwf	clcd_print@addr
  4206  0332  160A  118A  240B  120A  118A  	fcall	_clcd_print
  4207  0337  2B6F               	goto	l4565
  4208  0338                     l4555:
  4209                           
  4210                           ;main.c: 498:              clcd_print("Spin ",(0x80 + 10));
  4211  0338  308E               	movlw	low (STR_43| (0+32768))
  4212  0339  1283               	bcf	3,5	;RP0=0, select bank0
  4213  033A  1303               	bcf	3,6	;RP1=0, select bank0
  4214  033B  00A0               	movwf	clcd_print@str
  4215  033C  3091               	movlw	high (STR_43| (0+32768))
  4216  033D  00A1               	movwf	clcd_print@str+1
  4217  033E  308A               	movlw	138
  4218  033F  00D8               	movwf	??_run_program
  4219  0340  0858               	movf	??_run_program,w
  4220  0341  00A2               	movwf	clcd_print@addr
  4221  0342  160A  118A  240B  120A  118A  	fcall	_clcd_print
  4222  0347  2B6F               	goto	l4565
  4223  0348                     l4557:
  4224  0348  3009               	movlw	9
  4225  0349  067A               	xorwf	_program_no,w
  4226  034A  1D03               	btfss	3,2
  4227  034B  2B4D               	goto	u5701
  4228  034C  2B4E               	goto	u5700
  4229  034D                     u5701:
  4230  034D  2B5C               	goto	l4561
  4231  034E                     u5700:
  4232  034E                     l4559:
  4233                           
  4234                           ;main.c: 501:      {;main.c: 502:          clcd_print("Rinse ",(0x80 + 10));
  4235  034E  3080               	movlw	low (STR_46| (0+32768))
  4236  034F  00A0               	movwf	clcd_print@str
  4237  0350  3091               	movlw	high (STR_46| (0+32768))
  4238  0351  00A1               	movwf	clcd_print@str+1
  4239  0352  308A               	movlw	138
  4240  0353  00D8               	movwf	??_run_program
  4241  0354  0858               	movf	??_run_program,w
  4242  0355  00A2               	movwf	clcd_print@addr
  4243  0356  160A  118A  240B  120A  118A  	fcall	_clcd_print
  4244                           
  4245                           ;main.c: 503:      }
  4246  035B  2B6F               	goto	l4565
  4247  035C                     l4561:
  4248  035C  300A               	movlw	10
  4249  035D  067A               	xorwf	_program_no,w
  4250  035E  1D03               	btfss	3,2
  4251  035F  2B61               	goto	u5711
  4252  0360  2B62               	goto	u5710
  4253  0361                     u5711:
  4254  0361  2B6F               	goto	l4565
  4255  0362                     u5710:
  4256  0362                     l4563:
  4257                           
  4258                           ;main.c: 505:      {;main.c: 506:          clcd_print("Wash",(0x80 + 10));
  4259  0362  301F               	movlw	low ((STR_5+5)| (0+32768))
  4260  0363  00A0               	movwf	clcd_print@str
  4261  0364  3091               	movlw	high ((STR_5+5)| (0+32768))
  4262  0365  00A1               	movwf	clcd_print@str+1
  4263  0366  308A               	movlw	138
  4264  0367  00D8               	movwf	??_run_program
  4265  0368  0858               	movf	??_run_program,w
  4266  0369  00A2               	movwf	clcd_print@addr
  4267  036A  160A  118A  240B  120A  118A  	fcall	_clcd_print
  4268  036F                     l4565:
  4269                           
  4270                           ;main.c: 510:      clcd_putch((min/10)+'0',(0xC0 + 6));
  4271  036F  30C6               	movlw	198
  4272  0370  1283               	bcf	3,5	;RP0=0, select bank0
  4273  0371  1303               	bcf	3,6	;RP1=0, select bank0
  4274  0372  00D8               	movwf	??_run_program
  4275  0373  0858               	movf	??_run_program,w
  4276  0374  00A4               	movwf	clcd_putch@addr
  4277  0375  300A               	movlw	10
  4278  0376  00F3               	movwf	___awdiv@divisor
  4279  0377  3000               	movlw	0
  4280  0378  00F4               	movwf	___awdiv@divisor+1
  4281  0379  086C               	movf	_min,w
  4282  037A  00D9               	movwf	??_run_program+1
  4283  037B  01DA               	clrf	??_run_program+2
  4284  037C  0859               	movf	??_run_program+1,w
  4285  037D  00F5               	movwf	___awdiv@dividend
  4286  037E  085A               	movf	??_run_program+2,w
  4287  037F  00F6               	movwf	___awdiv@dividend+1
  4288  0380  160A  118A  25E7  120A  118A  	fcall	___awdiv
  4289  0385  0873               	movf	?___awdiv,w
  4290  0386  3E30               	addlw	48
  4291  0387  120A  158A  2000  120A  118A  	fcall	_clcd_putch
  4292  038C                     l4567:
  4293                           
  4294                           ;main.c: 511:      clcd_putch((min%10)+'0',(0xC0 + 7));
  4295  038C  30C7               	movlw	199
  4296  038D  1283               	bcf	3,5	;RP0=0, select bank0
  4297  038E  1303               	bcf	3,6	;RP1=0, select bank0
  4298  038F  00D8               	movwf	??_run_program
  4299  0390  0858               	movf	??_run_program,w
  4300  0391  00A4               	movwf	clcd_putch@addr
  4301  0392  300A               	movlw	10
  4302  0393  00F3               	movwf	___awmod@divisor
  4303  0394  3000               	movlw	0
  4304  0395  00F4               	movwf	___awmod@divisor+1
  4305  0396  086C               	movf	_min,w
  4306  0397  00D9               	movwf	??_run_program+1
  4307  0398  01DA               	clrf	??_run_program+2
  4308  0399  0859               	movf	??_run_program+1,w
  4309  039A  00F5               	movwf	___awmod@dividend
  4310  039B  085A               	movf	??_run_program+2,w
  4311  039C  00F6               	movwf	___awmod@dividend+1
  4312  039D  160A  118A  2524  120A  118A  	fcall	___awmod
  4313  03A2  0873               	movf	?___awmod,w
  4314  03A3  3E30               	addlw	48
  4315  03A4  120A  158A  2000  120A  118A  	fcall	_clcd_putch
  4316  03A9                     l4569:
  4317                           
  4318                           ;main.c: 512:      clcd_putch(':',(0xC0 + 8));
  4319  03A9  30C8               	movlw	200
  4320  03AA  1283               	bcf	3,5	;RP0=0, select bank0
  4321  03AB  1303               	bcf	3,6	;RP1=0, select bank0
  4322  03AC  00D8               	movwf	??_run_program
  4323  03AD  0858               	movf	??_run_program,w
  4324  03AE  00A4               	movwf	clcd_putch@addr
  4325  03AF  303A               	movlw	58
  4326  03B0  120A  158A  2000  120A  118A  	fcall	_clcd_putch
  4327  03B5                     l4571:
  4328                           
  4329                           ;main.c: 513:      clcd_putch((sec/10) +'0',(0xC0 + 9));
  4330  03B5  30C9               	movlw	201
  4331  03B6  1283               	bcf	3,5	;RP0=0, select bank0
  4332  03B7  1303               	bcf	3,6	;RP1=0, select bank0
  4333  03B8  00D8               	movwf	??_run_program
  4334  03B9  0858               	movf	??_run_program,w
  4335  03BA  00A4               	movwf	clcd_putch@addr
  4336  03BB  300A               	movlw	10
  4337  03BC  00F3               	movwf	___awdiv@divisor
  4338  03BD  3000               	movlw	0
  4339  03BE  00F4               	movwf	___awdiv@divisor+1
  4340  03BF  0878               	movf	_sec,w
  4341  03C0  00D9               	movwf	??_run_program+1
  4342  03C1  01DA               	clrf	??_run_program+2
  4343  03C2  0859               	movf	??_run_program+1,w
  4344  03C3  00F5               	movwf	___awdiv@dividend
  4345  03C4  085A               	movf	??_run_program+2,w
  4346  03C5  00F6               	movwf	___awdiv@dividend+1
  4347  03C6  160A  118A  25E7  120A  118A  	fcall	___awdiv
  4348  03CB  0873               	movf	?___awdiv,w
  4349  03CC  3E30               	addlw	48
  4350  03CD  120A  158A  2000  120A  118A  	fcall	_clcd_putch
  4351  03D2                     l4573:
  4352                           
  4353                           ;main.c: 514:      clcd_putch((sec%10)+'0',(0xC0 + 10));
  4354  03D2  30CA               	movlw	202
  4355  03D3  1283               	bcf	3,5	;RP0=0, select bank0
  4356  03D4  1303               	bcf	3,6	;RP1=0, select bank0
  4357  03D5  00D8               	movwf	??_run_program
  4358  03D6  0858               	movf	??_run_program,w
  4359  03D7  00A4               	movwf	clcd_putch@addr
  4360  03D8  300A               	movlw	10
  4361  03D9  00F3               	movwf	___awmod@divisor
  4362  03DA  3000               	movlw	0
  4363  03DB  00F4               	movwf	___awmod@divisor+1
  4364  03DC  0878               	movf	_sec,w
  4365  03DD  00D9               	movwf	??_run_program+1
  4366  03DE  01DA               	clrf	??_run_program+2
  4367  03DF  0859               	movf	??_run_program+1,w
  4368  03E0  00F5               	movwf	___awmod@dividend
  4369  03E1  085A               	movf	??_run_program+2,w
  4370  03E2  00F6               	movwf	___awmod@dividend+1
  4371  03E3  160A  118A  2524  120A  118A  	fcall	___awmod
  4372  03E8  0873               	movf	?___awmod,w
  4373  03E9  3E30               	addlw	48
  4374  03EA  120A  158A  2000  120A  118A  	fcall	_clcd_putch
  4375  03EF                     l4575:
  4376                           
  4377                           ;main.c: 517:      if(sec==0 && min ==0)
  4378  03EF  0878               	movf	_sec,w
  4379  03F0  1D03               	btfss	3,2
  4380  03F1  2BF3               	goto	u5721
  4381  03F2  2BF4               	goto	u5720
  4382  03F3                     u5721:
  4383  03F3  2C3D               	goto	l225
  4384  03F4                     u5720:
  4385  03F4                     l4577:
  4386  03F4  1283               	bcf	3,5	;RP0=0, select bank0
  4387  03F5  1303               	bcf	3,6	;RP1=0, select bank0
  4388  03F6  086C               	movf	_min,w
  4389  03F7  1D03               	btfss	3,2
  4390  03F8  2BFA               	goto	u5731
  4391  03F9  2BFB               	goto	u5730
  4392  03FA                     u5731:
  4393  03FA  2C3D               	goto	l225
  4394  03FB                     u5730:
  4395  03FB                     l4579:
  4396                           
  4397                           ;main.c: 518:      {;main.c: 519:          RC2=0;
  4398  03FB  1107               	bcf	7,2	;volatile
  4399                           
  4400                           ;main.c: 521:          TMR2ON=0;
  4401  03FC  1112               	bcf	18,2	;volatile
  4402                           
  4403                           ;main.c: 523:          RC1 = 1;
  4404  03FD  1487               	bsf	7,1	;volatile
  4405  03FE                     l4581:
  4406                           
  4407                           ;main.c: 524:          clear_scr();
  4408  03FE  160A  118A  231B  120A  118A  	fcall	_clear_scr
  4409  0403                     l4583:
  4410                           
  4411                           ;main.c: 525:          clcd_print("  Completed  ",(0x80 + 0));
  4412  0403  306F               	movlw	low (STR_48| (0+32768))
  4413  0404  1283               	bcf	3,5	;RP0=0, select bank0
  4414  0405  1303               	bcf	3,6	;RP1=0, select bank0
  4415  0406  00A0               	movwf	clcd_print@str
  4416  0407  3090               	movlw	high (STR_48| (0+32768))
  4417  0408  00A1               	movwf	clcd_print@str+1
  4418  0409  3080               	movlw	128
  4419  040A  00D8               	movwf	??_run_program
  4420  040B  0858               	movf	??_run_program,w
  4421  040C  00A2               	movwf	clcd_print@addr
  4422  040D  160A  118A  240B  120A  118A  	fcall	_clcd_print
  4423  0412                     l4585:
  4424                           
  4425                           ;main.c: 526:          clcd_print(" Remove cloths",(0xC0 + 0));
  4426  0412  3052               	movlw	low (STR_49| (0+32768))
  4427  0413  1283               	bcf	3,5	;RP0=0, select bank0
  4428  0414  1303               	bcf	3,6	;RP1=0, select bank0
  4429  0415  00A0               	movwf	clcd_print@str
  4430  0416  3090               	movlw	high (STR_49| (0+32768))
  4431  0417  00A1               	movwf	clcd_print@str+1
  4432  0418  30C0               	movlw	192
  4433  0419  00D8               	movwf	??_run_program
  4434  041A  0858               	movf	??_run_program,w
  4435  041B  00A2               	movwf	clcd_print@addr
  4436  041C  160A  118A  240B  120A  118A  	fcall	_clcd_print
  4437  0421                     l4587:
  4438                           
  4439                           ;main.c: 527:          _delay((unsigned long)((5000)*(20000000/4000.0)));
  4440  0421  307F               	movlw	127
  4441  0422  1283               	bcf	3,5	;RP0=0, select bank0
  4442  0423  1303               	bcf	3,6	;RP1=0, select bank0
  4443  0424  00DA               	movwf	??_run_program+2
  4444  0425  30D4               	movlw	212
  4445  0426  00D9               	movwf	??_run_program+1
  4446  0427  3031               	movlw	49
  4447  0428  00D8               	movwf	??_run_program
  4448  0429                     u5857:
  4449  0429  0BD8               	decfsz	??_run_program,f
  4450  042A  2C29               	goto	u5857
  4451  042B  0BD9               	decfsz	??_run_program+1,f
  4452  042C  2C29               	goto	u5857
  4453  042D  0BDA               	decfsz	??_run_program+2,f
  4454  042E  2C29               	goto	u5857
  4455  042F                     l4589:
  4456                           
  4457                           ;main.c: 528:          RC1 = 0;
  4458  042F  1283               	bcf	3,5	;RP0=0, select bank0
  4459  0430  1303               	bcf	3,6	;RP1=0, select bank0
  4460  0431  1087               	bcf	7,1	;volatile
  4461  0432                     l4591:
  4462                           
  4463                           ;main.c: 529:          operation_mode=0x01;
  4464  0432  01ED               	clrf	_operation_mode
  4465  0433  0AED               	incf	_operation_mode,f
  4466  0434                     l4593:
  4467                           
  4468                           ;main.c: 530:          reset_mode=0x10;
  4469  0434  3010               	movlw	16
  4470  0435  00D8               	movwf	??_run_program
  4471  0436  0858               	movf	??_run_program,w
  4472  0437  00EE               	movwf	_reset_mode
  4473                           
  4474                           ;main.c: 531:          clear_scr();
  4475  0438  160A  118A  231B  120A  118A  	fcall	_clear_scr
  4476  043D                     l225:
  4477  043D  0008               	return
  4478  043E                     __end_of_run_program:
  4479                           
  4480                           	psect	text6
  4481  157F                     __ptext6:	
  4482 ;; *************** function _door_open *****************
  4483 ;; Defined at:
  4484 ;;		line 401 in file "main.c"
  4485 ;; Parameters:    Size  Location     Type
  4486 ;;		None
  4487 ;; Auto vars:     Size  Location     Type
  4488 ;;		None
  4489 ;; Return value:  Size  Location     Type
  4490 ;;                  1    wreg      void 
  4491 ;; Registers used:
  4492 ;;		wreg, fsr0l, fsr0h, status,2, status,0, btemp+1, pclath, cstack
  4493 ;; Tracked objects:
  4494 ;;		On entry : 0/0
  4495 ;;		On exit  : 0/0
  4496 ;;		Unchanged: 0/0
  4497 ;; Data sizes:     COMMON   BANK0   BANK1   BANK3   BANK2
  4498 ;;      Params:         0       0       0       0       0
  4499 ;;      Locals:         0       0       0       0       0
  4500 ;;      Temps:          0       1       0       0       0
  4501 ;;      Totals:         0       1       0       0       0
  4502 ;;Total ram usage:        1 bytes
  4503 ;; Hardware stack levels used: 1
  4504 ;; Hardware stack levels required when called: 3
  4505 ;; This function calls:
  4506 ;;		_clcd_print
  4507 ;;		_clear_scr
  4508 ;; This function is called by:
  4509 ;;		_run_program
  4510 ;; This function uses a non-reentrant model
  4511 ;;
  4512                           
  4513                           
  4514                           ;psect for function _door_open
  4515  157F                     _door_open:
  4516  157F                     l3937:	
  4517                           ;incstack = 0
  4518                           ; Regs used in _door_open: [wreg-fsr0h+status,2+status,0+btemp+1+pclath+cstack]
  4519                           
  4520                           
  4521                           ;main.c: 403:     if(RB0==0)
  4522  157F  1283               	bcf	3,5	;RP0=0, select bank0
  4523  1580  1303               	bcf	3,6	;RP1=0, select bank0
  4524  1581  1806               	btfsc	6,0	;volatile
  4525  1582  2D84               	goto	u4451
  4526  1583  2D85               	goto	u4450
  4527  1584                     u4451:
  4528  1584  2DE6               	goto	l205
  4529  1585                     u4450:
  4530  1585                     l3939:
  4531                           
  4532                           ;main.c: 404:     { TMR2ON=0;
  4533  1585  1112               	bcf	18,2	;volatile
  4534                           
  4535                           ;main.c: 405:         RC1=1;
  4536  1586  1487               	bsf	7,1	;volatile
  4537                           
  4538                           ;main.c: 406:         RC2=0;
  4539  1587  1107               	bcf	7,2	;volatile
  4540  1588                     l3941:
  4541                           
  4542                           ;main.c: 407:         clear_scr();
  4543  1588  160A  118A  231B  160A  118A  	fcall	_clear_scr
  4544  158D                     l3943:
  4545                           
  4546                           ;main.c: 408:         clcd_print(" DOOR : OPEN",(0x80 + 0));
  4547  158D  30C1               	movlw	low (STR_30| (0+32768))
  4548  158E  1283               	bcf	3,5	;RP0=0, select bank0
  4549  158F  1303               	bcf	3,6	;RP1=0, select bank0
  4550  1590  00A0               	movwf	clcd_print@str
  4551  1591  3090               	movlw	high (STR_30| (0+32768))
  4552  1592  00A1               	movwf	clcd_print@str+1
  4553  1593  3080               	movlw	128
  4554  1594  00A3               	movwf	??_door_open
  4555  1595  0823               	movf	??_door_open,w
  4556  1596  00A2               	movwf	clcd_print@addr
  4557  1597  160A  118A  240B  160A  118A  	fcall	_clcd_print
  4558  159C                     l3945:
  4559                           
  4560                           ;main.c: 409:         clcd_print(" Please close",(0x90 + 0));
  4561  159C  308B               	movlw	low (STR_31| (0+32768))
  4562  159D  1283               	bcf	3,5	;RP0=0, select bank0
  4563  159E  1303               	bcf	3,6	;RP1=0, select bank0
  4564  159F  00A0               	movwf	clcd_print@str
  4565  15A0  3090               	movlw	high (STR_31| (0+32768))
  4566  15A1  00A1               	movwf	clcd_print@str+1
  4567  15A2  3090               	movlw	144
  4568  15A3  00A3               	movwf	??_door_open
  4569  15A4  0823               	movf	??_door_open,w
  4570  15A5  00A2               	movwf	clcd_print@addr
  4571  15A6  160A  118A  240B  160A  118A  	fcall	_clcd_print
  4572  15AB                     l202:	
  4573                           ;main.c: 411:         {;main.c: 413:         }
  4574                           
  4575                           
  4576                           ;main.c: 410:         while(RB0==0)
  4577  15AB  1283               	bcf	3,5	;RP0=0, select bank0
  4578  15AC  1303               	bcf	3,6	;RP1=0, select bank0
  4579  15AD  1C06               	btfss	6,0	;volatile
  4580  15AE  2DB0               	goto	u4461
  4581  15AF  2DB1               	goto	u4460
  4582  15B0                     u4461:
  4583  15B0  2DAB               	goto	l202
  4584  15B1                     u4460:
  4585  15B1                     l204:
  4586                           
  4587                           ;main.c: 414:         RC2=1;
  4588  15B1  1507               	bsf	7,2	;volatile
  4589                           
  4590                           ;main.c: 415:         TMR2ON=1;
  4591  15B2  1512               	bsf	18,2	;volatile
  4592                           
  4593                           ;main.c: 416:         RC1=0;
  4594  15B3  1087               	bcf	7,1	;volatile
  4595  15B4                     l3947:
  4596                           
  4597                           ;main.c: 417:         clear_scr();
  4598  15B4  160A  118A  231B  160A  118A  	fcall	_clear_scr
  4599  15B9                     l3949:
  4600                           
  4601                           ;main.c: 418:          clcd_print(" Function: ",(0x80 + 0));
  4602  15B9  30CE               	movlw	low (STR_32| (0+32768))
  4603  15BA  1283               	bcf	3,5	;RP0=0, select bank0
  4604  15BB  1303               	bcf	3,6	;RP1=0, select bank0
  4605  15BC  00A0               	movwf	clcd_print@str
  4606  15BD  3090               	movlw	high (STR_32| (0+32768))
  4607  15BE  00A1               	movwf	clcd_print@str+1
  4608  15BF  3080               	movlw	128
  4609  15C0  00A3               	movwf	??_door_open
  4610  15C1  0823               	movf	??_door_open,w
  4611  15C2  00A2               	movwf	clcd_print@addr
  4612  15C3  160A  118A  240B  160A  118A  	fcall	_clcd_print
  4613  15C8                     l3951:
  4614                           
  4615                           ;main.c: 419:          clcd_print(" Time:  ",(0xC0 + 0));
  4616  15C8  3055               	movlw	low (STR_33| (0+32768))
  4617  15C9  1283               	bcf	3,5	;RP0=0, select bank0
  4618  15CA  1303               	bcf	3,6	;RP1=0, select bank0
  4619  15CB  00A0               	movwf	clcd_print@str
  4620  15CC  3091               	movlw	high (STR_33| (0+32768))
  4621  15CD  00A1               	movwf	clcd_print@str+1
  4622  15CE  30C0               	movlw	192
  4623  15CF  00A3               	movwf	??_door_open
  4624  15D0  0823               	movf	??_door_open,w
  4625  15D1  00A2               	movwf	clcd_print@addr
  4626  15D2  160A  118A  240B  160A  118A  	fcall	_clcd_print
  4627  15D7                     l3953:
  4628                           
  4629                           ;main.c: 420:          clcd_print("5-START  6-PAUSE",(0xD0 + 0));
  4630  15D7  3000               	movlw	low (STR_34| (0+32768))
  4631  15D8  1283               	bcf	3,5	;RP0=0, select bank0
  4632  15D9  1303               	bcf	3,6	;RP1=0, select bank0
  4633  15DA  00A0               	movwf	clcd_print@str
  4634  15DB  3090               	movlw	high (STR_34| (0+32768))
  4635  15DC  00A1               	movwf	clcd_print@str+1
  4636  15DD  30D0               	movlw	208
  4637  15DE  00A3               	movwf	??_door_open
  4638  15DF  0823               	movf	??_door_open,w
  4639  15E0  00A2               	movwf	clcd_print@addr
  4640  15E1  160A  118A  240B  160A  118A  	fcall	_clcd_print
  4641  15E6                     l205:
  4642  15E6  0008               	return
  4643  15E7                     __end_of_door_open:
  4644                           
  4645                           	psect	text7
  4646  0815                     __ptext7:	
  4647 ;; *************** function ___xxtofl *****************
  4648 ;; Defined at:
  4649 ;;		line 10 in file "C:\Program Files\Microchip\xc8\v2.32\pic\sources\c90\common\xxtofl.c"
  4650 ;; Parameters:    Size  Location     Type
  4651 ;;  sign            1    wreg     unsigned char 
  4652 ;;  val             4    3[COMMON] long 
  4653 ;; Auto vars:     Size  Location     Type
  4654 ;;  sign            1    4[BANK0 ] unsigned char 
  4655 ;;  arg             4    6[BANK0 ] unsigned long 
  4656 ;;  exp             1    5[BANK0 ] unsigned char 
  4657 ;; Return value:  Size  Location     Type
  4658 ;;                  4    3[COMMON] unsigned char 
  4659 ;; Registers used:
  4660 ;;		wreg, status,2, status,0
  4661 ;; Tracked objects:
  4662 ;;		On entry : 0/0
  4663 ;;		On exit  : 0/0
  4664 ;;		Unchanged: 0/0
  4665 ;; Data sizes:     COMMON   BANK0   BANK1   BANK3   BANK2
  4666 ;;      Params:         4       0       0       0       0
  4667 ;;      Locals:         0       6       0       0       0
  4668 ;;      Temps:          0       4       0       0       0
  4669 ;;      Totals:         4      10       0       0       0
  4670 ;;Total ram usage:       14 bytes
  4671 ;; Hardware stack levels used: 1
  4672 ;; Hardware stack levels required when called: 1
  4673 ;; This function calls:
  4674 ;;		Nothing
  4675 ;; This function is called by:
  4676 ;;		_run_program
  4677 ;; This function uses a non-reentrant model
  4678 ;;
  4679                           
  4680                           
  4681                           ;psect for function ___xxtofl
  4682  0815                     ___xxtofl:
  4683                           
  4684                           ;incstack = 0
  4685                           ; Regs used in ___xxtofl: [wreg+status,2+status,0]
  4686                           ;___xxtofl@sign stored from wreg
  4687  0815  1283               	bcf	3,5	;RP0=0, select bank0
  4688  0816  1303               	bcf	3,6	;RP1=0, select bank0
  4689  0817  00A4               	movwf	___xxtofl@sign
  4690  0818                     l4253:
  4691  0818  0824               	movf	___xxtofl@sign,w
  4692  0819  1903               	btfsc	3,2
  4693  081A  281C               	goto	u5241
  4694  081B  281D               	goto	u5240
  4695  081C                     u5241:
  4696  081C  2831               	goto	l4259
  4697  081D                     u5240:
  4698  081D                     l4255:
  4699  081D  1FF6               	btfss	___xxtofl@val+3,7
  4700  081E  2820               	goto	u5251
  4701  081F  2821               	goto	u5250
  4702  0820                     u5251:
  4703  0820  2831               	goto	l4259
  4704  0821                     u5250:
  4705  0821                     l4257:
  4706  0821  0973               	comf	___xxtofl@val,w
  4707  0822  00A6               	movwf	___xxtofl@arg
  4708  0823  0974               	comf	___xxtofl@val+1,w
  4709  0824  00A7               	movwf	___xxtofl@arg+1
  4710  0825  0975               	comf	___xxtofl@val+2,w
  4711  0826  00A8               	movwf	___xxtofl@arg+2
  4712  0827  0976               	comf	___xxtofl@val+3,w
  4713  0828  00A9               	movwf	___xxtofl@arg+3
  4714  0829  0AA6               	incf	___xxtofl@arg,f
  4715  082A  1903               	skipnz
  4716  082B  0AA7               	incf	___xxtofl@arg+1,f
  4717  082C  1903               	skipnz
  4718  082D  0AA8               	incf	___xxtofl@arg+2,f
  4719  082E  1903               	skipnz
  4720  082F  0AA9               	incf	___xxtofl@arg+3,f
  4721  0830  2839               	goto	l832
  4722  0831                     l4259:
  4723  0831  0876               	movf	___xxtofl@val+3,w
  4724  0832  00A9               	movwf	___xxtofl@arg+3
  4725  0833  0875               	movf	___xxtofl@val+2,w
  4726  0834  00A8               	movwf	___xxtofl@arg+2
  4727  0835  0874               	movf	___xxtofl@val+1,w
  4728  0836  00A7               	movwf	___xxtofl@arg+1
  4729  0837  0873               	movf	___xxtofl@val,w
  4730  0838  00A6               	movwf	___xxtofl@arg
  4731  0839                     l832:
  4732  0839  0876               	movf	___xxtofl@val+3,w
  4733  083A  0475               	iorwf	___xxtofl@val+2,w
  4734  083B  0474               	iorwf	___xxtofl@val+1,w
  4735  083C  0473               	iorwf	___xxtofl@val,w
  4736  083D  1D03               	skipz
  4737  083E  2840               	goto	u5261
  4738  083F  2841               	goto	u5260
  4739  0840                     u5261:
  4740  0840  284A               	goto	l4265
  4741  0841                     u5260:
  4742  0841                     l4261:
  4743  0841  3000               	movlw	0
  4744  0842  00F6               	movwf	?___xxtofl+3
  4745  0843  3000               	movlw	0
  4746  0844  00F5               	movwf	?___xxtofl+2
  4747  0845  3000               	movlw	0
  4748  0846  00F4               	movwf	?___xxtofl+1
  4749  0847  3000               	movlw	0
  4750  0848  00F3               	movwf	?___xxtofl
  4751  0849  28D0               	goto	l834
  4752  084A                     l4265:
  4753  084A  3096               	movlw	150
  4754  084B  00A0               	movwf	??___xxtofl
  4755  084C  0820               	movf	??___xxtofl,w
  4756  084D  00A5               	movwf	___xxtofl@exp
  4757  084E  285C               	goto	l4269
  4758  084F                     l4267:
  4759  084F  3001               	movlw	1
  4760  0850  00A0               	movwf	??___xxtofl
  4761  0851  0820               	movf	??___xxtofl,w
  4762  0852  07A5               	addwf	___xxtofl@exp,f
  4763  0853  3001               	movlw	1
  4764  0854                     u5275:
  4765  0854  1003               	clrc
  4766  0855  0CA9               	rrf	___xxtofl@arg+3,f
  4767  0856  0CA8               	rrf	___xxtofl@arg+2,f
  4768  0857  0CA7               	rrf	___xxtofl@arg+1,f
  4769  0858  0CA6               	rrf	___xxtofl@arg,f
  4770  0859  3EFF               	addlw	-1
  4771  085A  1D03               	skipz
  4772  085B  2854               	goto	u5275
  4773  085C                     l4269:
  4774  085C  30FE               	movlw	254
  4775  085D  0529               	andwf	___xxtofl@arg+3,w
  4776  085E  1D03               	btfss	3,2
  4777  085F  2861               	goto	u5281
  4778  0860  2862               	goto	u5280
  4779  0861                     u5281:
  4780  0861  284F               	goto	l4267
  4781  0862                     u5280:
  4782  0862  287E               	goto	l838
  4783  0863                     l4271:
  4784  0863  3001               	movlw	1
  4785  0864  00A0               	movwf	??___xxtofl
  4786  0865  0820               	movf	??___xxtofl,w
  4787  0866  07A5               	addwf	___xxtofl@exp,f
  4788  0867                     l4273:
  4789  0867  3001               	movlw	1
  4790  0868  07A6               	addwf	___xxtofl@arg,f
  4791  0869  3000               	movlw	0
  4792  086A  1803               	skipnc
  4793  086B  3001               	movlw	1
  4794  086C  07A7               	addwf	___xxtofl@arg+1,f
  4795  086D  3000               	movlw	0
  4796  086E  1803               	skipnc
  4797  086F  3001               	movlw	1
  4798  0870  07A8               	addwf	___xxtofl@arg+2,f
  4799  0871  3000               	movlw	0
  4800  0872  1803               	skipnc
  4801  0873  3001               	movlw	1
  4802  0874  07A9               	addwf	___xxtofl@arg+3,f
  4803  0875                     l4275:
  4804  0875  3001               	movlw	1
  4805  0876                     u5295:
  4806  0876  1003               	clrc
  4807  0877  0CA9               	rrf	___xxtofl@arg+3,f
  4808  0878  0CA8               	rrf	___xxtofl@arg+2,f
  4809  0879  0CA7               	rrf	___xxtofl@arg+1,f
  4810  087A  0CA6               	rrf	___xxtofl@arg,f
  4811  087B  3EFF               	addlw	-1
  4812  087C  1D03               	skipz
  4813  087D  2876               	goto	u5295
  4814  087E                     l838:
  4815  087E  30FF               	movlw	255
  4816  087F  0529               	andwf	___xxtofl@arg+3,w
  4817  0880  1D03               	btfss	3,2
  4818  0881  2883               	goto	u5301
  4819  0882  2884               	goto	u5300
  4820  0883                     u5301:
  4821  0883  2863               	goto	l4271
  4822  0884                     u5300:
  4823  0884  2890               	goto	l4279
  4824  0885                     l4277:
  4825  0885  3001               	movlw	1
  4826  0886  02A5               	subwf	___xxtofl@exp,f
  4827  0887  3001               	movlw	1
  4828  0888  00A0               	movwf	??___xxtofl
  4829  0889                     u5315:
  4830  0889  1003               	clrc
  4831  088A  0DA6               	rlf	___xxtofl@arg,f
  4832  088B  0DA7               	rlf	___xxtofl@arg+1,f
  4833  088C  0DA8               	rlf	___xxtofl@arg+2,f
  4834  088D  0DA9               	rlf	___xxtofl@arg+3,f
  4835  088E  0BA0               	decfsz	??___xxtofl,f
  4836  088F  2889               	goto	u5315
  4837  0890                     l4279:
  4838  0890  1BA8               	btfsc	___xxtofl@arg+2,7
  4839  0891  2893               	goto	u5321
  4840  0892  2894               	goto	u5320
  4841  0893                     u5321:
  4842  0893  289A               	goto	l845
  4843  0894                     u5320:
  4844  0894                     l4281:
  4845  0894  3002               	movlw	2
  4846  0895  0225               	subwf	___xxtofl@exp,w
  4847  0896  1803               	skipnc
  4848  0897  2899               	goto	u5331
  4849  0898  289A               	goto	u5330
  4850  0899                     u5331:
  4851  0899  2885               	goto	l4277
  4852  089A                     u5330:
  4853  089A                     l845:
  4854  089A  1825               	btfsc	___xxtofl@exp,0
  4855  089B  289D               	goto	u5341
  4856  089C  289E               	goto	u5340
  4857  089D                     u5341:
  4858  089D  28A6               	goto	l846
  4859  089E                     u5340:
  4860  089E                     l4283:
  4861  089E  30FF               	movlw	255
  4862  089F  05A6               	andwf	___xxtofl@arg,f
  4863  08A0  30FF               	movlw	255
  4864  08A1  05A7               	andwf	___xxtofl@arg+1,f
  4865  08A2  307F               	movlw	127
  4866  08A3  05A8               	andwf	___xxtofl@arg+2,f
  4867  08A4  30FF               	movlw	255
  4868  08A5  05A9               	andwf	___xxtofl@arg+3,f
  4869  08A6                     l846:
  4870  08A6  1003               	clrc
  4871  08A7  0CA5               	rrf	___xxtofl@exp,f
  4872  08A8                     l4285:
  4873  08A8  0825               	movf	___xxtofl@exp,w
  4874  08A9  00A0               	movwf	??___xxtofl
  4875  08AA  01A1               	clrf	??___xxtofl+1
  4876  08AB  01A2               	clrf	??___xxtofl+2
  4877  08AC  01A3               	clrf	??___xxtofl+3
  4878  08AD  3018               	movlw	24
  4879  08AE                     u5355:
  4880  08AE  1003               	clrc
  4881  08AF  0DA0               	rlf	??___xxtofl,f
  4882  08B0  0DA1               	rlf	??___xxtofl+1,f
  4883  08B1  0DA2               	rlf	??___xxtofl+2,f
  4884  08B2  0DA3               	rlf	??___xxtofl+3,f
  4885  08B3                     u5350:
  4886  08B3  3EFF               	addlw	-1
  4887  08B4  1D03               	skipz
  4888  08B5  28AE               	goto	u5355
  4889  08B6  0820               	movf	??___xxtofl,w
  4890  08B7  04A6               	iorwf	___xxtofl@arg,f
  4891  08B8  0821               	movf	??___xxtofl+1,w
  4892  08B9  04A7               	iorwf	___xxtofl@arg+1,f
  4893  08BA  0822               	movf	??___xxtofl+2,w
  4894  08BB  04A8               	iorwf	___xxtofl@arg+2,f
  4895  08BC  0823               	movf	??___xxtofl+3,w
  4896  08BD  04A9               	iorwf	___xxtofl@arg+3,f
  4897  08BE                     l4287:
  4898  08BE  0824               	movf	___xxtofl@sign,w
  4899  08BF  1903               	btfsc	3,2
  4900  08C0  28C2               	goto	u5361
  4901  08C1  28C3               	goto	u5360
  4902  08C2                     u5361:
  4903  08C2  28C8               	goto	l4293
  4904  08C3                     u5360:
  4905  08C3                     l4289:
  4906  08C3  1FF6               	btfss	___xxtofl@val+3,7
  4907  08C4  28C6               	goto	u5371
  4908  08C5  28C7               	goto	u5370
  4909  08C6                     u5371:
  4910  08C6  28C8               	goto	l4293
  4911  08C7                     u5370:
  4912  08C7                     l4291:
  4913  08C7  17A9               	bsf	___xxtofl@arg+3,7
  4914  08C8                     l4293:
  4915  08C8  0829               	movf	___xxtofl@arg+3,w
  4916  08C9  00F6               	movwf	?___xxtofl+3
  4917  08CA  0828               	movf	___xxtofl@arg+2,w
  4918  08CB  00F5               	movwf	?___xxtofl+2
  4919  08CC  0827               	movf	___xxtofl@arg+1,w
  4920  08CD  00F4               	movwf	?___xxtofl+1
  4921  08CE  0826               	movf	___xxtofl@arg,w
  4922  08CF  00F3               	movwf	?___xxtofl
  4923  08D0                     l834:
  4924  08D0  0008               	return
  4925  08D1                     __end_of___xxtofl:
  4926                           
  4927                           	psect	text8
  4928  13E0                     __ptext8:	
  4929 ;; *************** function ___wmul *****************
  4930 ;; Defined at:
  4931 ;;		line 15 in file "C:\Program Files\Microchip\xc8\v2.32\pic\sources\c90\common\Umul16.c"
  4932 ;; Parameters:    Size  Location     Type
  4933 ;;  multiplier      2    3[COMMON] unsigned int 
  4934 ;;  multiplicand    2    5[COMMON] unsigned int 
  4935 ;; Auto vars:     Size  Location     Type
  4936 ;;  product         2    0[BANK0 ] unsigned int 
  4937 ;; Return value:  Size  Location     Type
  4938 ;;                  2    3[COMMON] unsigned int 
  4939 ;; Registers used:
  4940 ;;		wreg, status,2, status,0
  4941 ;; Tracked objects:
  4942 ;;		On entry : 0/0
  4943 ;;		On exit  : 0/0
  4944 ;;		Unchanged: 0/0
  4945 ;; Data sizes:     COMMON   BANK0   BANK1   BANK3   BANK2
  4946 ;;      Params:         4       0       0       0       0
  4947 ;;      Locals:         0       2       0       0       0
  4948 ;;      Temps:          0       0       0       0       0
  4949 ;;      Totals:         4       2       0       0       0
  4950 ;;Total ram usage:        6 bytes
  4951 ;; Hardware stack levels used: 1
  4952 ;; Hardware stack levels required when called: 1
  4953 ;; This function calls:
  4954 ;;		Nothing
  4955 ;; This function is called by:
  4956 ;;		_run_program
  4957 ;; This function uses a non-reentrant model
  4958 ;;
  4959                           
  4960                           
  4961                           ;psect for function ___wmul
  4962  13E0                     ___wmul:
  4963  13E0                     l3955:	
  4964                           ;incstack = 0
  4965                           ; Regs used in ___wmul: [wreg+status,2+status,0]
  4966                           
  4967  13E0  1283               	bcf	3,5	;RP0=0, select bank0
  4968  13E1  1303               	bcf	3,6	;RP1=0, select bank0
  4969  13E2  01A0               	clrf	___wmul@product
  4970  13E3  01A1               	clrf	___wmul@product+1
  4971  13E4                     l3957:
  4972  13E4  1C73               	btfss	___wmul@multiplier,0
  4973  13E5  2BE7               	goto	u4471
  4974  13E6  2BE8               	goto	u4470
  4975  13E7                     u4471:
  4976  13E7  2BF0               	goto	l399
  4977  13E8                     u4470:
  4978  13E8                     l3959:
  4979  13E8  0875               	movf	___wmul@multiplicand,w
  4980  13E9  1283               	bcf	3,5	;RP0=0, select bank0
  4981  13EA  1303               	bcf	3,6	;RP1=0, select bank0
  4982  13EB  07A0               	addwf	___wmul@product,f
  4983  13EC  1803               	skipnc
  4984  13ED  0AA1               	incf	___wmul@product+1,f
  4985  13EE  0876               	movf	___wmul@multiplicand+1,w
  4986  13EF  07A1               	addwf	___wmul@product+1,f
  4987  13F0                     l399:
  4988  13F0  3001               	movlw	1
  4989  13F1                     u4485:
  4990  13F1  1003               	clrc
  4991  13F2  0DF5               	rlf	___wmul@multiplicand,f
  4992  13F3  0DF6               	rlf	___wmul@multiplicand+1,f
  4993  13F4  3EFF               	addlw	-1
  4994  13F5  1D03               	skipz
  4995  13F6  2BF1               	goto	u4485
  4996  13F7                     l3961:
  4997  13F7  3001               	movlw	1
  4998  13F8                     u4495:
  4999  13F8  1003               	clrc
  5000  13F9  0CF4               	rrf	___wmul@multiplier+1,f
  5001  13FA  0CF3               	rrf	___wmul@multiplier,f
  5002  13FB  3EFF               	addlw	-1
  5003  13FC  1D03               	skipz
  5004  13FD  2BF8               	goto	u4495
  5005  13FE                     l3963:
  5006  13FE  0873               	movf	___wmul@multiplier,w
  5007  13FF  0474               	iorwf	___wmul@multiplier+1,w
  5008  1400  1D03               	btfss	3,2
  5009  1401  2C03               	goto	u4501
  5010  1402  2C04               	goto	u4500
  5011  1403                     u4501:
  5012  1403  2BE4               	goto	l3957
  5013  1404                     u4500:
  5014  1404                     l3965:
  5015  1404  1283               	bcf	3,5	;RP0=0, select bank0
  5016  1405  1303               	bcf	3,6	;RP1=0, select bank0
  5017  1406  0821               	movf	___wmul@product+1,w
  5018  1407  00F4               	movwf	?___wmul+1
  5019  1408  0820               	movf	___wmul@product,w
  5020  1409  00F3               	movwf	?___wmul
  5021  140A                     l401:
  5022  140A  0008               	return
  5023  140B                     __end_of___wmul:
  5024                           
  5025                           	psect	text9
  5026  1650                     __ptext9:	
  5027 ;; *************** function ___fltol *****************
  5028 ;; Defined at:
  5029 ;;		line 43 in file "C:\Program Files\Microchip\xc8\v2.32\pic\sources\c90\common\fltol.c"
  5030 ;; Parameters:    Size  Location     Type
  5031 ;;  f1              4   36[BANK0 ] unsigned int 
  5032 ;; Auto vars:     Size  Location     Type
  5033 ;;  exp1            1   46[BANK0 ] unsigned char 
  5034 ;;  sign1           1   45[BANK0 ] unsigned char 
  5035 ;; Return value:  Size  Location     Type
  5036 ;;                  4   36[BANK0 ] long 
  5037 ;; Registers used:
  5038 ;;		wreg, status,2, status,0
  5039 ;; Tracked objects:
  5040 ;;		On entry : 0/0
  5041 ;;		On exit  : 0/0
  5042 ;;		Unchanged: 0/0
  5043 ;; Data sizes:     COMMON   BANK0   BANK1   BANK3   BANK2
  5044 ;;      Params:         0       4       0       0       0
  5045 ;;      Locals:         0       2       0       0       0
  5046 ;;      Temps:          0       5       0       0       0
  5047 ;;      Totals:         0      11       0       0       0
  5048 ;;Total ram usage:       11 bytes
  5049 ;; Hardware stack levels used: 1
  5050 ;; Hardware stack levels required when called: 1
  5051 ;; This function calls:
  5052 ;;		Nothing
  5053 ;; This function is called by:
  5054 ;;		_run_program
  5055 ;; This function uses a non-reentrant model
  5056 ;;
  5057                           
  5058                           
  5059                           ;psect for function ___fltol
  5060  1650                     ___fltol:
  5061  1650                     l4071:	
  5062                           ;incstack = 0
  5063                           ; Regs used in ___fltol: [wreg+status,2+status,0]
  5064                           
  5065  1650  1003               	clrc
  5066  1651  1283               	bcf	3,5	;RP0=0, select bank0
  5067  1652  1303               	bcf	3,6	;RP1=0, select bank0
  5068  1653  0D46               	rlf	___fltol@f1+2,w
  5069  1654  0D47               	rlf	___fltol@f1+3,w
  5070  1655  00C8               	movwf	??___fltol
  5071  1656  0848               	movf	??___fltol,w
  5072  1657  00CE               	movwf	___fltol@exp1
  5073  1658  084E               	movf	___fltol@exp1,w
  5074  1659  1D03               	btfss	3,2
  5075  165A  2E5C               	goto	u4771
  5076  165B  2E5D               	goto	u4770
  5077  165C                     u4771:
  5078  165C  2E66               	goto	l4077
  5079  165D                     u4770:
  5080  165D                     l4073:
  5081  165D  3000               	movlw	0
  5082  165E  00C7               	movwf	?___fltol+3
  5083  165F  3000               	movlw	0
  5084  1660  00C6               	movwf	?___fltol+2
  5085  1661  3000               	movlw	0
  5086  1662  00C5               	movwf	?___fltol+1
  5087  1663  3000               	movlw	0
  5088  1664  00C4               	movwf	?___fltol
  5089  1665  2ECB               	goto	l585
  5090  1666                     l4077:
  5091  1666  0844               	movf	___fltol@f1,w
  5092  1667  00C8               	movwf	??___fltol
  5093  1668  0845               	movf	___fltol@f1+1,w
  5094  1669  00C9               	movwf	??___fltol+1
  5095  166A  0846               	movf	___fltol@f1+2,w
  5096  166B  00CA               	movwf	??___fltol+2
  5097  166C  0847               	movf	___fltol@f1+3,w
  5098  166D  00CB               	movwf	??___fltol+3
  5099  166E  301F               	movlw	31
  5100  166F                     u4785:
  5101  166F  1003               	clrc
  5102  1670  0CCB               	rrf	??___fltol+3,f
  5103  1671  0CCA               	rrf	??___fltol+2,f
  5104  1672  0CC9               	rrf	??___fltol+1,f
  5105  1673  0CC8               	rrf	??___fltol,f
  5106  1674                     u4780:
  5107  1674  3EFF               	addlw	-1
  5108  1675  1D03               	skipz
  5109  1676  2E6F               	goto	u4785
  5110  1677  0848               	movf	??___fltol,w
  5111  1678  00CC               	movwf	??___fltol+4
  5112  1679  084C               	movf	??___fltol+4,w
  5113  167A  00CD               	movwf	___fltol@sign1
  5114  167B                     l4079:
  5115  167B  17C6               	bsf	___fltol@f1+2,7
  5116  167C                     l4081:
  5117  167C  30FF               	movlw	255
  5118  167D  05C4               	andwf	___fltol@f1,f
  5119  167E  30FF               	movlw	255
  5120  167F  05C5               	andwf	___fltol@f1+1,f
  5121  1680  30FF               	movlw	255
  5122  1681  05C6               	andwf	___fltol@f1+2,f
  5123  1682  3000               	movlw	0
  5124  1683  05C7               	andwf	___fltol@f1+3,f
  5125  1684                     l4083:
  5126  1684  3096               	movlw	150
  5127  1685  02CE               	subwf	___fltol@exp1,f
  5128  1686                     l4085:
  5129  1686  1FCE               	btfss	___fltol@exp1,7
  5130  1687  2E89               	goto	u4791
  5131  1688  2E8A               	goto	u4790
  5132  1689                     u4791:
  5133  1689  2EA4               	goto	l4095
  5134  168A                     u4790:
  5135  168A                     l4087:
  5136  168A  084E               	movf	___fltol@exp1,w
  5137  168B  3A80               	xorlw	128
  5138  168C  3E97               	addlw	151
  5139  168D  1803               	skipnc
  5140  168E  2E90               	goto	u4801
  5141  168F  2E91               	goto	u4800
  5142  1690                     u4801:
  5143  1690  2E92               	goto	l4093
  5144  1691                     u4800:
  5145  1691  2E5D               	goto	l4073
  5146  1692                     l4093:
  5147  1692  3001               	movlw	1
  5148  1693                     u4815:
  5149  1693  1003               	clrc
  5150  1694  0CC7               	rrf	___fltol@f1+3,f
  5151  1695  0CC6               	rrf	___fltol@f1+2,f
  5152  1696  0CC5               	rrf	___fltol@f1+1,f
  5153  1697  0CC4               	rrf	___fltol@f1,f
  5154  1698  3EFF               	addlw	-1
  5155  1699  1D03               	skipz
  5156  169A  2E93               	goto	u4815
  5157  169B  3001               	movlw	1
  5158  169C  00C8               	movwf	??___fltol
  5159  169D  0848               	movf	??___fltol,w
  5160  169E  07CE               	addwf	___fltol@exp1,f
  5161  169F  1D03               	btfss	3,2
  5162  16A0  2EA2               	goto	u4821
  5163  16A1  2EA3               	goto	u4820
  5164  16A2                     u4821:
  5165  16A2  2E92               	goto	l4093
  5166  16A3                     u4820:
  5167  16A3  2EBB               	goto	l4103
  5168  16A4                     l4095:
  5169  16A4  3020               	movlw	32
  5170  16A5  024E               	subwf	___fltol@exp1,w
  5171  16A6  1C03               	skipc
  5172  16A7  2EA9               	goto	u4831
  5173  16A8  2EAA               	goto	u4830
  5174  16A9                     u4831:
  5175  16A9  2EB6               	goto	l592
  5176  16AA                     u4830:
  5177  16AA  2E5D               	goto	l4073
  5178  16AB                     l4101:
  5179  16AB  3001               	movlw	1
  5180  16AC  00C8               	movwf	??___fltol
  5181  16AD                     u4845:
  5182  16AD  1003               	clrc
  5183  16AE  0DC4               	rlf	___fltol@f1,f
  5184  16AF  0DC5               	rlf	___fltol@f1+1,f
  5185  16B0  0DC6               	rlf	___fltol@f1+2,f
  5186  16B1  0DC7               	rlf	___fltol@f1+3,f
  5187  16B2  0BC8               	decfsz	??___fltol,f
  5188  16B3  2EAD               	goto	u4845
  5189  16B4  3001               	movlw	1
  5190  16B5  02CE               	subwf	___fltol@exp1,f
  5191  16B6                     l592:
  5192  16B6  084E               	movf	___fltol@exp1,w
  5193  16B7  1D03               	btfss	3,2
  5194  16B8  2EBA               	goto	u4851
  5195  16B9  2EBB               	goto	u4850
  5196  16BA                     u4851:
  5197  16BA  2EAB               	goto	l4101
  5198  16BB                     u4850:
  5199  16BB                     l4103:
  5200  16BB  084D               	movf	___fltol@sign1,w
  5201  16BC  1903               	btfsc	3,2
  5202  16BD  2EBF               	goto	u4861
  5203  16BE  2EC0               	goto	u4860
  5204  16BF                     u4861:
  5205  16BF  2ECB               	goto	l595
  5206  16C0                     u4860:
  5207  16C0                     l4105:
  5208  16C0  09C4               	comf	___fltol@f1,f
  5209  16C1  09C5               	comf	___fltol@f1+1,f
  5210  16C2  09C6               	comf	___fltol@f1+2,f
  5211  16C3  09C7               	comf	___fltol@f1+3,f
  5212  16C4  0AC4               	incf	___fltol@f1,f
  5213  16C5  1903               	skipnz
  5214  16C6  0AC5               	incf	___fltol@f1+1,f
  5215  16C7  1903               	skipnz
  5216  16C8  0AC6               	incf	___fltol@f1+2,f
  5217  16C9  1903               	skipnz
  5218  16CA  0AC7               	incf	___fltol@f1+3,f
  5219  16CB                     l595:
  5220  16CB                     l585:
  5221  16CB  0008               	return
  5222  16CC                     __end_of___fltol:
  5223                           
  5224                           	psect	text10
  5225  1393                     __ptext10:	
  5226 ;; *************** function ___flsub *****************
  5227 ;; Defined at:
  5228 ;;		line 242 in file "C:\Program Files\Microchip\xc8\v2.32\pic\sources\c90\common\sprcadd.c"
  5229 ;; Parameters:    Size  Location     Type
  5230 ;;  a               4   36[BANK0 ] long 
  5231 ;;  b               4   40[BANK0 ] long 
  5232 ;; Auto vars:     Size  Location     Type
  5233 ;;		None
  5234 ;; Return value:  Size  Location     Type
  5235 ;;                  4   36[BANK0 ] long 
  5236 ;; Registers used:
  5237 ;;		wreg, status,2, status,0, btemp+1, pclath, cstack
  5238 ;; Tracked objects:
  5239 ;;		On entry : 0/0
  5240 ;;		On exit  : 0/0
  5241 ;;		Unchanged: 0/0
  5242 ;; Data sizes:     COMMON   BANK0   BANK1   BANK3   BANK2
  5243 ;;      Params:         0       8       0       0       0
  5244 ;;      Locals:         0       0       0       0       0
  5245 ;;      Temps:          0       0       0       0       0
  5246 ;;      Totals:         0       8       0       0       0
  5247 ;;Total ram usage:        8 bytes
  5248 ;; Hardware stack levels used: 1
  5249 ;; Hardware stack levels required when called: 2
  5250 ;; This function calls:
  5251 ;;		___fladd
  5252 ;; This function is called by:
  5253 ;;		_run_program
  5254 ;; This function uses a non-reentrant model
  5255 ;;
  5256                           
  5257                           
  5258                           ;psect for function ___flsub
  5259  1393                     ___flsub:
  5260  1393                     l4107:	
  5261                           ;incstack = 0
  5262                           ; Regs used in ___flsub: [wreg+status,2+status,0+btemp+1+pclath+cstack]
  5263                           
  5264  1393  3080               	movlw	128
  5265  1394  1283               	bcf	3,5	;RP0=0, select bank0
  5266  1395  1303               	bcf	3,6	;RP1=0, select bank0
  5267  1396  06C7               	xorwf	___flsub@a+3,f
  5268  1397                     l4109:
  5269  1397  084B               	movf	___flsub@b+3,w
  5270  1398  00A3               	movwf	___fladd@b+3
  5271  1399  084A               	movf	___flsub@b+2,w
  5272  139A  00A2               	movwf	___fladd@b+2
  5273  139B  0849               	movf	___flsub@b+1,w
  5274  139C  00A1               	movwf	___fladd@b+1
  5275  139D  0848               	movf	___flsub@b,w
  5276  139E  00A0               	movwf	___fladd@b
  5277  139F  0847               	movf	___flsub@a+3,w
  5278  13A0  00A7               	movwf	___fladd@a+3
  5279  13A1  0846               	movf	___flsub@a+2,w
  5280  13A2  00A6               	movwf	___fladd@a+2
  5281  13A3  0845               	movf	___flsub@a+1,w
  5282  13A4  00A5               	movwf	___fladd@a+1
  5283  13A5  0844               	movf	___flsub@a,w
  5284  13A6  00A4               	movwf	___fladd@a
  5285  13A7  120A  158A  2570  160A  118A  	fcall	___fladd
  5286  13AC  1283               	bcf	3,5	;RP0=0, select bank0
  5287  13AD  1303               	bcf	3,6	;RP1=0, select bank0
  5288  13AE  0823               	movf	?___fladd+3,w
  5289  13AF  00C7               	movwf	?___flsub+3
  5290  13B0  0822               	movf	?___fladd+2,w
  5291  13B1  00C6               	movwf	?___flsub+2
  5292  13B2  0821               	movf	?___fladd+1,w
  5293  13B3  00C5               	movwf	?___flsub+1
  5294  13B4  0820               	movf	?___fladd,w
  5295  13B5  00C4               	movwf	?___flsub
  5296  13B6                     l738:
  5297  13B6  0008               	return
  5298  13B7                     __end_of___flsub:
  5299                           
  5300                           	psect	text11
  5301  0D70                     __ptext11:	
  5302 ;; *************** function ___fladd *****************
  5303 ;; Defined at:
  5304 ;;		line 10 in file "C:\Program Files\Microchip\xc8\v2.32\pic\sources\c90\common\sprcadd.c"
  5305 ;; Parameters:    Size  Location     Type
  5306 ;;  b               4    0[BANK0 ] long 
  5307 ;;  a               4    4[BANK0 ] long 
  5308 ;; Auto vars:     Size  Location     Type
  5309 ;;  grs             1    6[COMMON] unsigned char 
  5310 ;;  bexp            1    5[COMMON] unsigned char 
  5311 ;;  aexp            1    4[COMMON] unsigned char 
  5312 ;;  signs           1    3[COMMON] unsigned char 
  5313 ;; Return value:  Size  Location     Type
  5314 ;;                  4    0[BANK0 ] unsigned char 
  5315 ;; Registers used:
  5316 ;;		wreg, status,2, status,0, btemp+1
  5317 ;; Tracked objects:
  5318 ;;		On entry : 0/0
  5319 ;;		On exit  : 0/0
  5320 ;;		Unchanged: 0/0
  5321 ;; Data sizes:     COMMON   BANK0   BANK1   BANK3   BANK2
  5322 ;;      Params:         0       8       0       0       0
  5323 ;;      Locals:         4       0       0       0       0
  5324 ;;      Temps:          0       8       0       0       0
  5325 ;;      Totals:         4      16       0       0       0
  5326 ;;Total ram usage:       20 bytes
  5327 ;; Hardware stack levels used: 1
  5328 ;; Hardware stack levels required when called: 1
  5329 ;; This function calls:
  5330 ;;		Nothing
  5331 ;; This function is called by:
  5332 ;;		___flsub
  5333 ;; This function uses a non-reentrant model
  5334 ;;
  5335                           
  5336                           
  5337                           ;psect for function ___fladd
  5338  0D70                     ___fladd:
  5339  0D70                     l3579:	
  5340                           ;incstack = 0
  5341                           ; Regs used in ___fladd: [wreg+status,2+status,0+btemp+1]
  5342                           
  5343  0D70  1283               	bcf	3,5	;RP0=0, select bank0
  5344  0D71  1303               	bcf	3,6	;RP1=0, select bank0
  5345  0D72  0823               	movf	___fladd@b+3,w
  5346  0D73  3980               	andlw	128
  5347  0D74  00A8               	movwf	??___fladd
  5348  0D75  0828               	movf	??___fladd,w
  5349  0D76  00F3               	movwf	___fladd@signs
  5350  0D77                     l3581:
  5351  0D77  0823               	movf	___fladd@b+3,w
  5352  0D78  00A8               	movwf	??___fladd
  5353  0D79  0728               	addwf	??___fladd,w
  5354  0D7A  00A9               	movwf	??___fladd+1
  5355  0D7B  0829               	movf	??___fladd+1,w
  5356  0D7C  00F5               	movwf	___fladd@bexp
  5357  0D7D                     l3583:
  5358  0D7D  1FA2               	btfss	___fladd@b+2,7
  5359  0D7E  2D80               	goto	u3961
  5360  0D7F  2D81               	goto	u3960
  5361  0D80                     u3961:
  5362  0D80  2D82               	goto	l3587
  5363  0D81                     u3960:
  5364  0D81                     l3585:
  5365  0D81  1475               	bsf	___fladd@bexp,0
  5366  0D82                     l3587:
  5367  0D82  0875               	movf	___fladd@bexp,w
  5368  0D83  1903               	btfsc	3,2
  5369  0D84  2D86               	goto	u3971
  5370  0D85  2D87               	goto	u3970
  5371  0D86                     u3971:
  5372  0D86  2D97               	goto	l3597
  5373  0D87                     u3970:
  5374  0D87                     l3589:
  5375  0D87  0A75               	incf	___fladd@bexp,w
  5376  0D88  1D03               	btfss	3,2
  5377  0D89  2D8B               	goto	u3981
  5378  0D8A  2D8C               	goto	u3980
  5379  0D8B                     u3981:
  5380  0D8B  2D94               	goto	l3593
  5381  0D8C                     u3980:
  5382  0D8C                     l3591:
  5383  0D8C  3000               	movlw	0
  5384  0D8D  00A3               	movwf	___fladd@b+3
  5385  0D8E  3000               	movlw	0
  5386  0D8F  00A2               	movwf	___fladd@b+2
  5387  0D90  3000               	movlw	0
  5388  0D91  00A1               	movwf	___fladd@b+1
  5389  0D92  3000               	movlw	0
  5390  0D93  00A0               	movwf	___fladd@b
  5391  0D94                     l3593:
  5392  0D94  17A2               	bsf	___fladd@b+2,7
  5393  0D95                     l3595:
  5394  0D95  01A3               	clrf	___fladd@b+3
  5395  0D96  2D9F               	goto	l3599
  5396  0D97                     l3597:
  5397  0D97  3000               	movlw	0
  5398  0D98  00A3               	movwf	___fladd@b+3
  5399  0D99  3000               	movlw	0
  5400  0D9A  00A2               	movwf	___fladd@b+2
  5401  0D9B  3000               	movlw	0
  5402  0D9C  00A1               	movwf	___fladd@b+1
  5403  0D9D  3000               	movlw	0
  5404  0D9E  00A0               	movwf	___fladd@b
  5405  0D9F                     l3599:
  5406  0D9F  0827               	movf	___fladd@a+3,w
  5407  0DA0  3980               	andlw	128
  5408  0DA1  00A8               	movwf	??___fladd
  5409  0DA2  0828               	movf	??___fladd,w
  5410  0DA3  00F4               	movwf	___fladd@aexp
  5411  0DA4                     l3601:
  5412  0DA4  0874               	movf	___fladd@aexp,w
  5413  0DA5  0673               	xorwf	___fladd@signs,w
  5414  0DA6  1903               	skipnz
  5415  0DA7  2DA9               	goto	u3991
  5416  0DA8  2DAA               	goto	u3990
  5417  0DA9                     u3991:
  5418  0DA9  2DAB               	goto	l3605
  5419  0DAA                     u3990:
  5420  0DAA                     l3603:
  5421  0DAA  1773               	bsf	___fladd@signs,6
  5422  0DAB                     l3605:
  5423  0DAB  0827               	movf	___fladd@a+3,w
  5424  0DAC  00A8               	movwf	??___fladd
  5425  0DAD  0728               	addwf	??___fladd,w
  5426  0DAE  00A9               	movwf	??___fladd+1
  5427  0DAF  0829               	movf	??___fladd+1,w
  5428  0DB0  00F4               	movwf	___fladd@aexp
  5429  0DB1                     l3607:
  5430  0DB1  1FA6               	btfss	___fladd@a+2,7
  5431  0DB2  2DB4               	goto	u4001
  5432  0DB3  2DB5               	goto	u4000
  5433  0DB4                     u4001:
  5434  0DB4  2DB6               	goto	l3611
  5435  0DB5                     u4000:
  5436  0DB5                     l3609:
  5437  0DB5  1474               	bsf	___fladd@aexp,0
  5438  0DB6                     l3611:
  5439  0DB6  0874               	movf	___fladd@aexp,w
  5440  0DB7  1903               	btfsc	3,2
  5441  0DB8  2DBA               	goto	u4011
  5442  0DB9  2DBB               	goto	u4010
  5443  0DBA                     u4011:
  5444  0DBA  2DCB               	goto	l3621
  5445  0DBB                     u4010:
  5446  0DBB                     l3613:
  5447  0DBB  0A74               	incf	___fladd@aexp,w
  5448  0DBC  1D03               	btfss	3,2
  5449  0DBD  2DBF               	goto	u4021
  5450  0DBE  2DC0               	goto	u4020
  5451  0DBF                     u4021:
  5452  0DBF  2DC8               	goto	l3617
  5453  0DC0                     u4020:
  5454  0DC0                     l3615:
  5455  0DC0  3000               	movlw	0
  5456  0DC1  00A7               	movwf	___fladd@a+3
  5457  0DC2  3000               	movlw	0
  5458  0DC3  00A6               	movwf	___fladd@a+2
  5459  0DC4  3000               	movlw	0
  5460  0DC5  00A5               	movwf	___fladd@a+1
  5461  0DC6  3000               	movlw	0
  5462  0DC7  00A4               	movwf	___fladd@a
  5463  0DC8                     l3617:
  5464  0DC8  17A6               	bsf	___fladd@a+2,7
  5465  0DC9                     l3619:
  5466  0DC9  01A7               	clrf	___fladd@a+3
  5467  0DCA  2DD3               	goto	l692
  5468  0DCB                     l3621:
  5469  0DCB  3000               	movlw	0
  5470  0DCC  00A7               	movwf	___fladd@a+3
  5471  0DCD  3000               	movlw	0
  5472  0DCE  00A6               	movwf	___fladd@a+2
  5473  0DCF  3000               	movlw	0
  5474  0DD0  00A5               	movwf	___fladd@a+1
  5475  0DD1  3000               	movlw	0
  5476  0DD2  00A4               	movwf	___fladd@a
  5477  0DD3                     l692:
  5478  0DD3  0875               	movf	___fladd@bexp,w
  5479  0DD4  0274               	subwf	___fladd@aexp,w
  5480  0DD5  1803               	skipnc
  5481  0DD6  2DD8               	goto	u4031
  5482  0DD7  2DD9               	goto	u4030
  5483  0DD8                     u4031:
  5484  0DD8  2E1D               	goto	l3657
  5485  0DD9                     u4030:
  5486  0DD9                     l3623:
  5487  0DD9  1F73               	btfss	___fladd@signs,6
  5488  0DDA  2DDC               	goto	u4041
  5489  0DDB  2DDD               	goto	u4040
  5490  0DDC                     u4041:
  5491  0DDC  2DE1               	goto	l3627
  5492  0DDD                     u4040:
  5493  0DDD                     l3625:
  5494  0DDD  3080               	movlw	128
  5495  0DDE  00A8               	movwf	??___fladd
  5496  0DDF  0828               	movf	??___fladd,w
  5497  0DE0  06F3               	xorwf	___fladd@signs,f
  5498  0DE1                     l3627:
  5499  0DE1  0875               	movf	___fladd@bexp,w
  5500  0DE2  00A8               	movwf	??___fladd
  5501  0DE3  0828               	movf	??___fladd,w
  5502  0DE4  00F6               	movwf	___fladd@grs
  5503  0DE5                     l3629:
  5504  0DE5  0874               	movf	___fladd@aexp,w
  5505  0DE6  00A8               	movwf	??___fladd
  5506  0DE7  0828               	movf	??___fladd,w
  5507  0DE8  00F5               	movwf	___fladd@bexp
  5508  0DE9                     l3631:
  5509  0DE9  0876               	movf	___fladd@grs,w
  5510  0DEA  00A8               	movwf	??___fladd
  5511  0DEB  0828               	movf	??___fladd,w
  5512  0DEC  00F4               	movwf	___fladd@aexp
  5513  0DED                     l3633:
  5514  0DED  0820               	movf	___fladd@b,w
  5515  0DEE  00A8               	movwf	??___fladd
  5516  0DEF  0828               	movf	??___fladd,w
  5517  0DF0  00F6               	movwf	___fladd@grs
  5518  0DF1                     l3635:
  5519  0DF1  0824               	movf	___fladd@a,w
  5520  0DF2  00A8               	movwf	??___fladd
  5521  0DF3  0828               	movf	??___fladd,w
  5522  0DF4  00A0               	movwf	___fladd@b
  5523  0DF5                     l3637:
  5524  0DF5  0876               	movf	___fladd@grs,w
  5525  0DF6  00A8               	movwf	??___fladd
  5526  0DF7  0828               	movf	??___fladd,w
  5527  0DF8  00A4               	movwf	___fladd@a
  5528  0DF9                     l3639:
  5529  0DF9  0821               	movf	___fladd@b+1,w
  5530  0DFA  00A8               	movwf	??___fladd
  5531  0DFB  0828               	movf	??___fladd,w
  5532  0DFC  00F6               	movwf	___fladd@grs
  5533  0DFD                     l3641:
  5534  0DFD  0825               	movf	___fladd@a+1,w
  5535  0DFE  00A8               	movwf	??___fladd
  5536  0DFF  0828               	movf	??___fladd,w
  5537  0E00  00A1               	movwf	___fladd@b+1
  5538  0E01                     l3643:
  5539  0E01  0876               	movf	___fladd@grs,w
  5540  0E02  00A8               	movwf	??___fladd
  5541  0E03  0828               	movf	??___fladd,w
  5542  0E04  00A5               	movwf	___fladd@a+1
  5543  0E05                     l3645:
  5544  0E05  0822               	movf	___fladd@b+2,w
  5545  0E06  00A8               	movwf	??___fladd
  5546  0E07  0828               	movf	??___fladd,w
  5547  0E08  00F6               	movwf	___fladd@grs
  5548  0E09                     l3647:
  5549  0E09  0826               	movf	___fladd@a+2,w
  5550  0E0A  00A8               	movwf	??___fladd
  5551  0E0B  0828               	movf	??___fladd,w
  5552  0E0C  00A2               	movwf	___fladd@b+2
  5553  0E0D                     l3649:
  5554  0E0D  0876               	movf	___fladd@grs,w
  5555  0E0E  00A8               	movwf	??___fladd
  5556  0E0F  0828               	movf	??___fladd,w
  5557  0E10  00A6               	movwf	___fladd@a+2
  5558  0E11                     l3651:
  5559  0E11  0823               	movf	___fladd@b+3,w
  5560  0E12  00A8               	movwf	??___fladd
  5561  0E13  0828               	movf	??___fladd,w
  5562  0E14  00F6               	movwf	___fladd@grs
  5563  0E15                     l3653:
  5564  0E15  0827               	movf	___fladd@a+3,w
  5565  0E16  00A8               	movwf	??___fladd
  5566  0E17  0828               	movf	??___fladd,w
  5567  0E18  00A3               	movwf	___fladd@b+3
  5568  0E19                     l3655:
  5569  0E19  0876               	movf	___fladd@grs,w
  5570  0E1A  00A8               	movwf	??___fladd
  5571  0E1B  0828               	movf	??___fladd,w
  5572  0E1C  00A7               	movwf	___fladd@a+3
  5573  0E1D                     l3657:
  5574  0E1D  01F6               	clrf	___fladd@grs
  5575  0E1E                     l3659:
  5576  0E1E  0874               	movf	___fladd@aexp,w
  5577  0E1F  00A8               	movwf	??___fladd
  5578  0E20  01A9               	clrf	??___fladd+1
  5579  0E21  0829               	movf	??___fladd+1,w
  5580  0E22  00AB               	movwf	??___fladd+3
  5581  0E23  0875               	movf	___fladd@bexp,w
  5582  0E24  0228               	subwf	??___fladd,w
  5583  0E25  00AA               	movwf	??___fladd+2
  5584  0E26  1C03               	skipc
  5585  0E27  03AB               	decf	??___fladd+3,f
  5586  0E28  082B               	movf	??___fladd+3,w
  5587  0E29  3A80               	xorlw	128
  5588  0E2A  00FF               	movwf	btemp+1
  5589  0E2B  3080               	movlw	128
  5590  0E2C  027F               	subwf	btemp+1,w
  5591  0E2D  1D03               	skipz
  5592  0E2E  2E31               	goto	u4055
  5593  0E2F  301A               	movlw	26
  5594  0E30  022A               	subwf	??___fladd+2,w
  5595  0E31                     u4055:
  5596  0E31  1C03               	skipc
  5597  0E32  2E34               	goto	u4051
  5598  0E33  2E35               	goto	u4050
  5599  0E34                     u4051:
  5600  0E34  2E76               	goto	l3675
  5601  0E35                     u4050:
  5602  0E35                     l3661:
  5603  0E35  1283               	bcf	3,5	;RP0=0, select bank0
  5604  0E36  1303               	bcf	3,6	;RP1=0, select bank0
  5605  0E37  0823               	movf	___fladd@b+3,w
  5606  0E38  0422               	iorwf	___fladd@b+2,w
  5607  0E39  0421               	iorwf	___fladd@b+1,w
  5608  0E3A  0420               	iorwf	___fladd@b,w
  5609  0E3B  1D03               	skipz
  5610  0E3C  2E3E               	goto	u4061
  5611  0E3D  2E40               	goto	u4060
  5612  0E3E                     u4061:
  5613  0E3E  3001               	movlw	1
  5614  0E3F  2E41               	goto	u4070
  5615  0E40                     u4060:
  5616  0E40  3000               	movlw	0
  5617  0E41                     u4070:
  5618  0E41  00A8               	movwf	??___fladd
  5619  0E42  0828               	movf	??___fladd,w
  5620  0E43  00F6               	movwf	___fladd@grs
  5621  0E44  3000               	movlw	0
  5622  0E45  00A3               	movwf	___fladd@b+3
  5623  0E46  3000               	movlw	0
  5624  0E47  00A2               	movwf	___fladd@b+2
  5625  0E48  3000               	movlw	0
  5626  0E49  00A1               	movwf	___fladd@b+1
  5627  0E4A  3000               	movlw	0
  5628  0E4B  00A0               	movwf	___fladd@b
  5629  0E4C  0874               	movf	___fladd@aexp,w
  5630  0E4D  00A8               	movwf	??___fladd
  5631  0E4E  0828               	movf	??___fladd,w
  5632  0E4F  00F5               	movwf	___fladd@bexp
  5633  0E50  2E7C               	goto	l696
  5634  0E51                     l698:
  5635  0E51  1C76               	btfss	___fladd@grs,0
  5636  0E52  2E54               	goto	u4081
  5637  0E53  2E55               	goto	u4080
  5638  0E54                     u4081:
  5639  0E54  2E60               	goto	l3665
  5640  0E55                     u4080:
  5641  0E55                     l3663:
  5642  0E55  0876               	movf	___fladd@grs,w
  5643  0E56  1283               	bcf	3,5	;RP0=0, select bank0
  5644  0E57  1303               	bcf	3,6	;RP1=0, select bank0
  5645  0E58  00A8               	movwf	??___fladd
  5646  0E59  1003               	clrc
  5647  0E5A  0C28               	rrf	??___fladd,w
  5648  0E5B  3801               	iorlw	1
  5649  0E5C  00A9               	movwf	??___fladd+1
  5650  0E5D  0829               	movf	??___fladd+1,w
  5651  0E5E  00F6               	movwf	___fladd@grs
  5652  0E5F  2E62               	goto	l3667
  5653  0E60                     l3665:
  5654  0E60  1003               	clrc
  5655  0E61  0CF6               	rrf	___fladd@grs,f
  5656  0E62                     l3667:
  5657  0E62  1283               	bcf	3,5	;RP0=0, select bank0
  5658  0E63  1303               	bcf	3,6	;RP1=0, select bank0
  5659  0E64  1C20               	btfss	___fladd@b,0
  5660  0E65  2E67               	goto	u4091
  5661  0E66  2E68               	goto	u4090
  5662  0E67                     u4091:
  5663  0E67  2E69               	goto	l3671
  5664  0E68                     u4090:
  5665  0E68                     l3669:
  5666  0E68  17F6               	bsf	___fladd@grs,7
  5667  0E69                     l3671:
  5668  0E69  3001               	movlw	1
  5669  0E6A  00A8               	movwf	??___fladd
  5670  0E6B                     u4105:
  5671  0E6B  0D23               	rlf	___fladd@b+3,w
  5672  0E6C  0CA3               	rrf	___fladd@b+3,f
  5673  0E6D  0CA2               	rrf	___fladd@b+2,f
  5674  0E6E  0CA1               	rrf	___fladd@b+1,f
  5675  0E6F  0CA0               	rrf	___fladd@b,f
  5676  0E70  0BA8               	decfsz	??___fladd& (0+127),f
  5677  0E71  2E6B               	goto	u4105
  5678  0E72                     l3673:
  5679  0E72  3001               	movlw	1
  5680  0E73  00A8               	movwf	??___fladd
  5681  0E74  0828               	movf	??___fladd,w
  5682  0E75  07F5               	addwf	___fladd@bexp,f
  5683  0E76                     l3675:
  5684  0E76  0874               	movf	___fladd@aexp,w
  5685  0E77  0275               	subwf	___fladd@bexp,w
  5686  0E78  1C03               	skipc
  5687  0E79  2E7B               	goto	u4111
  5688  0E7A  2E7C               	goto	u4110
  5689  0E7B                     u4111:
  5690  0E7B  2E51               	goto	l698
  5691  0E7C                     u4110:
  5692  0E7C                     l696:
  5693  0E7C  1B73               	btfsc	___fladd@signs,6
  5694  0E7D  2E7F               	goto	u4121
  5695  0E7E  2E80               	goto	u4120
  5696  0E7F                     u4121:
  5697  0E7F  2ECF               	goto	l3701
  5698  0E80                     u4120:
  5699  0E80                     l3677:
  5700  0E80  0875               	movf	___fladd@bexp,w
  5701  0E81  1D03               	btfss	3,2
  5702  0E82  2E84               	goto	u4131
  5703  0E83  2E85               	goto	u4130
  5704  0E84                     u4131:
  5705  0E84  2E90               	goto	l3683
  5706  0E85                     u4130:
  5707  0E85                     l3679:
  5708  0E85  3000               	movlw	0
  5709  0E86  1283               	bcf	3,5	;RP0=0, select bank0
  5710  0E87  1303               	bcf	3,6	;RP1=0, select bank0
  5711  0E88  00A3               	movwf	?___fladd+3
  5712  0E89  3000               	movlw	0
  5713  0E8A  00A2               	movwf	?___fladd+2
  5714  0E8B  3000               	movlw	0
  5715  0E8C  00A1               	movwf	?___fladd+1
  5716  0E8D  3000               	movlw	0
  5717  0E8E  00A0               	movwf	?___fladd
  5718  0E8F  2FFF               	goto	l705
  5719  0E90                     l3683:
  5720  0E90  1283               	bcf	3,5	;RP0=0, select bank0
  5721  0E91  1303               	bcf	3,6	;RP1=0, select bank0
  5722  0E92  0824               	movf	___fladd@a,w
  5723  0E93  07A0               	addwf	___fladd@b,f
  5724  0E94  0825               	movf	___fladd@a+1,w
  5725  0E95  1103               	clrz
  5726  0E96  1803               	skipnc
  5727  0E97  3E01               	addlw	1
  5728  0E98  1903               	skipnz
  5729  0E99  2E9B               	goto	u4141
  5730  0E9A  07A1               	addwf	___fladd@b+1,f
  5731  0E9B                     u4141:
  5732  0E9B  0826               	movf	___fladd@a+2,w
  5733  0E9C  1103               	clrz
  5734  0E9D  1803               	skipnc
  5735  0E9E  3E01               	addlw	1
  5736  0E9F  1903               	skipnz
  5737  0EA0  2EA2               	goto	u4142
  5738  0EA1  07A2               	addwf	___fladd@b+2,f
  5739  0EA2                     u4142:
  5740  0EA2  0827               	movf	___fladd@a+3,w
  5741  0EA3  1103               	clrz
  5742  0EA4  1803               	skipnc
  5743  0EA5  3E01               	addlw	1
  5744  0EA6  1903               	skipnz
  5745  0EA7  2EA9               	goto	u4143
  5746  0EA8  07A3               	addwf	___fladd@b+3,f
  5747  0EA9                     u4143:
  5748  0EA9                     l3685:
  5749  0EA9  1C23               	btfss	___fladd@b+3,0
  5750  0EAA  2EAC               	goto	u4151
  5751  0EAB  2EAD               	goto	u4150
  5752  0EAC                     u4151:
  5753  0EAC  2F85               	goto	l3735
  5754  0EAD                     u4150:
  5755  0EAD                     l3687:
  5756  0EAD  1C76               	btfss	___fladd@grs,0
  5757  0EAE  2EB0               	goto	u4161
  5758  0EAF  2EB1               	goto	u4160
  5759  0EB0                     u4161:
  5760  0EB0  2EBA               	goto	l3691
  5761  0EB1                     u4160:
  5762  0EB1                     l3689:
  5763  0EB1  0876               	movf	___fladd@grs,w
  5764  0EB2  00A8               	movwf	??___fladd
  5765  0EB3  1003               	clrc
  5766  0EB4  0C28               	rrf	??___fladd,w
  5767  0EB5  3801               	iorlw	1
  5768  0EB6  00A9               	movwf	??___fladd+1
  5769  0EB7  0829               	movf	??___fladd+1,w
  5770  0EB8  00F6               	movwf	___fladd@grs
  5771  0EB9  2EBC               	goto	l3693
  5772  0EBA                     l3691:
  5773  0EBA  1003               	clrc
  5774  0EBB  0CF6               	rrf	___fladd@grs,f
  5775  0EBC                     l3693:
  5776  0EBC  1C20               	btfss	___fladd@b,0
  5777  0EBD  2EBF               	goto	u4171
  5778  0EBE  2EC0               	goto	u4170
  5779  0EBF                     u4171:
  5780  0EBF  2EC1               	goto	l3697
  5781  0EC0                     u4170:
  5782  0EC0                     l3695:
  5783  0EC0  17F6               	bsf	___fladd@grs,7
  5784  0EC1                     l3697:
  5785  0EC1  3001               	movlw	1
  5786  0EC2  00A8               	movwf	??___fladd
  5787  0EC3                     u4185:
  5788  0EC3  0D23               	rlf	___fladd@b+3,w
  5789  0EC4  0CA3               	rrf	___fladd@b+3,f
  5790  0EC5  0CA2               	rrf	___fladd@b+2,f
  5791  0EC6  0CA1               	rrf	___fladd@b+1,f
  5792  0EC7  0CA0               	rrf	___fladd@b,f
  5793  0EC8  0BA8               	decfsz	??___fladd& (0+127),f
  5794  0EC9  2EC3               	goto	u4185
  5795  0ECA                     l3699:
  5796  0ECA  3001               	movlw	1
  5797  0ECB  00A8               	movwf	??___fladd
  5798  0ECC  0828               	movf	??___fladd,w
  5799  0ECD  07F5               	addwf	___fladd@bexp,f
  5800  0ECE  2F85               	goto	l3735
  5801  0ECF                     l3701:
  5802  0ECF  1283               	bcf	3,5	;RP0=0, select bank0
  5803  0ED0  1303               	bcf	3,6	;RP1=0, select bank0
  5804  0ED1  0823               	movf	___fladd@b+3,w
  5805  0ED2  3A80               	xorlw	128
  5806  0ED3  00FF               	movwf	btemp+1
  5807  0ED4  0827               	movf	___fladd@a+3,w
  5808  0ED5  3A80               	xorlw	128
  5809  0ED6  027F               	subwf	btemp+1,w
  5810  0ED7  1D03               	skipz
  5811  0ED8  2EE3               	goto	u4193
  5812  0ED9  0826               	movf	___fladd@a+2,w
  5813  0EDA  0222               	subwf	___fladd@b+2,w
  5814  0EDB  1D03               	skipz
  5815  0EDC  2EE3               	goto	u4193
  5816  0EDD  0825               	movf	___fladd@a+1,w
  5817  0EDE  0221               	subwf	___fladd@b+1,w
  5818  0EDF  1D03               	skipz
  5819  0EE0  2EE3               	goto	u4193
  5820  0EE1  0824               	movf	___fladd@a,w
  5821  0EE2  0220               	subwf	___fladd@b,w
  5822  0EE3                     u4193:
  5823  0EE3  1803               	skipnc
  5824  0EE4  2EE6               	goto	u4191
  5825  0EE5  2EE7               	goto	u4190
  5826  0EE6                     u4191:
  5827  0EE6  2F3F               	goto	l3711
  5828  0EE7                     u4190:
  5829  0EE7                     l3703:
  5830  0EE7  30FF               	movlw	255
  5831  0EE8  00A8               	movwf	??___fladd
  5832  0EE9  30FF               	movlw	255
  5833  0EEA  00A9               	movwf	??___fladd+1
  5834  0EEB  30FF               	movlw	255
  5835  0EEC  00AA               	movwf	??___fladd+2
  5836  0EED  30FF               	movlw	255
  5837  0EEE  00AB               	movwf	??___fladd+3
  5838  0EEF  0824               	movf	___fladd@a,w
  5839  0EF0  00AC               	movwf	??___fladd+4
  5840  0EF1  0825               	movf	___fladd@a+1,w
  5841  0EF2  00AD               	movwf	??___fladd+5
  5842  0EF3  0826               	movf	___fladd@a+2,w
  5843  0EF4  00AE               	movwf	??___fladd+6
  5844  0EF5  0827               	movf	___fladd@a+3,w
  5845  0EF6  00AF               	movwf	??___fladd+7
  5846  0EF7  0820               	movf	___fladd@b,w
  5847  0EF8  02AC               	subwf	??___fladd+4,f
  5848  0EF9  0821               	movf	___fladd@b+1,w
  5849  0EFA  1C03               	skipc
  5850  0EFB  0F21               	incfsz	___fladd@b+1,w
  5851  0EFC  2EFE               	goto	u4201
  5852  0EFD  2EFF               	goto	u4202
  5853  0EFE                     u4201:
  5854  0EFE  02AD               	subwf	??___fladd+5,f
  5855  0EFF                     u4202:
  5856  0EFF  0822               	movf	___fladd@b+2,w
  5857  0F00  1C03               	skipc
  5858  0F01  0F22               	incfsz	___fladd@b+2,w
  5859  0F02  2F04               	goto	u4203
  5860  0F03  2F05               	goto	u4204
  5861  0F04                     u4203:
  5862  0F04  02AE               	subwf	??___fladd+6,f
  5863  0F05                     u4204:
  5864  0F05  0823               	movf	___fladd@b+3,w
  5865  0F06  1C03               	skipc
  5866  0F07  0F23               	incfsz	___fladd@b+3,w
  5867  0F08  2F0A               	goto	u4205
  5868  0F09  2F0B               	goto	u4206
  5869  0F0A                     u4205:
  5870  0F0A  02AF               	subwf	??___fladd+7,f
  5871  0F0B                     u4206:
  5872  0F0B  082C               	movf	??___fladd+4,w
  5873  0F0C  07A8               	addwf	??___fladd,f
  5874  0F0D  082D               	movf	??___fladd+5,w
  5875  0F0E  1803               	skipnc
  5876  0F0F  0F2D               	incfsz	??___fladd+5,w
  5877  0F10  2F12               	goto	u4210
  5878  0F11  2F13               	goto	u4211
  5879  0F12                     u4210:
  5880  0F12  07A9               	addwf	??___fladd+1,f
  5881  0F13                     u4211:
  5882  0F13  082E               	movf	??___fladd+6,w
  5883  0F14  1803               	skipnc
  5884  0F15  0F2E               	incfsz	??___fladd+6,w
  5885  0F16  2F18               	goto	u4212
  5886  0F17  2F19               	goto	u4213
  5887  0F18                     u4212:
  5888  0F18  07AA               	addwf	??___fladd+2,f
  5889  0F19                     u4213:
  5890  0F19  082F               	movf	??___fladd+7,w
  5891  0F1A  1803               	skipnc
  5892  0F1B  0A2F               	incf	??___fladd+7,w
  5893  0F1C  07AB               	addwf	??___fladd+3,f
  5894  0F1D  082B               	movf	??___fladd+3,w
  5895  0F1E  00A3               	movwf	___fladd@b+3
  5896  0F1F  082A               	movf	??___fladd+2,w
  5897  0F20  00A2               	movwf	___fladd@b+2
  5898  0F21  0829               	movf	??___fladd+1,w
  5899  0F22  00A1               	movwf	___fladd@b+1
  5900  0F23  0828               	movf	??___fladd,w
  5901  0F24  00A0               	movwf	___fladd@b
  5902  0F25                     l3705:
  5903  0F25  3080               	movlw	128
  5904  0F26  00A8               	movwf	??___fladd
  5905  0F27  0828               	movf	??___fladd,w
  5906  0F28  06F3               	xorwf	___fladd@signs,f
  5907  0F29  09F6               	comf	___fladd@grs,f
  5908  0F2A  0AF6               	incf	___fladd@grs,f
  5909  0F2B                     l3707:
  5910  0F2B  0876               	movf	___fladd@grs,w
  5911  0F2C  1D03               	btfss	3,2
  5912  0F2D  2F2F               	goto	u4221
  5913  0F2E  2F30               	goto	u4220
  5914  0F2F                     u4221:
  5915  0F2F  2F4D               	goto	l713
  5916  0F30                     u4220:
  5917  0F30                     l3709:
  5918  0F30  3001               	movlw	1
  5919  0F31  07A0               	addwf	___fladd@b,f
  5920  0F32  3000               	movlw	0
  5921  0F33  1803               	skipnc
  5922  0F34  3001               	movlw	1
  5923  0F35  07A1               	addwf	___fladd@b+1,f
  5924  0F36  3000               	movlw	0
  5925  0F37  1803               	skipnc
  5926  0F38  3001               	movlw	1
  5927  0F39  07A2               	addwf	___fladd@b+2,f
  5928  0F3A  3000               	movlw	0
  5929  0F3B  1803               	skipnc
  5930  0F3C  3001               	movlw	1
  5931  0F3D  07A3               	addwf	___fladd@b+3,f
  5932  0F3E  2F4D               	goto	l713
  5933  0F3F                     l3711:
  5934  0F3F  0824               	movf	___fladd@a,w
  5935  0F40  02A0               	subwf	___fladd@b,f
  5936  0F41  0825               	movf	___fladd@a+1,w
  5937  0F42  1C03               	skipc
  5938  0F43  0F25               	incfsz	___fladd@a+1,w
  5939  0F44  02A1               	subwf	___fladd@b+1,f
  5940  0F45  0826               	movf	___fladd@a+2,w
  5941  0F46  1C03               	skipc
  5942  0F47  0F26               	incfsz	___fladd@a+2,w
  5943  0F48  02A2               	subwf	___fladd@b+2,f
  5944  0F49  0827               	movf	___fladd@a+3,w
  5945  0F4A  1C03               	skipc
  5946  0F4B  0F27               	incfsz	___fladd@a+3,w
  5947  0F4C  02A3               	subwf	___fladd@b+3,f
  5948  0F4D                     l713:
  5949  0F4D  0823               	movf	___fladd@b+3,w
  5950  0F4E  0422               	iorwf	___fladd@b+2,w
  5951  0F4F  0421               	iorwf	___fladd@b+1,w
  5952  0F50  0420               	iorwf	___fladd@b,w
  5953  0F51  1D03               	skipz
  5954  0F52  2F54               	goto	u4231
  5955  0F53  2F55               	goto	u4230
  5956  0F54                     u4231:
  5957  0F54  2F81               	goto	l3733
  5958  0F55                     u4230:
  5959  0F55                     l3713:
  5960  0F55  0876               	movf	___fladd@grs,w
  5961  0F56  1D03               	btfss	3,2
  5962  0F57  2F59               	goto	u4241
  5963  0F58  2F5A               	goto	u4240
  5964  0F59                     u4241:
  5965  0F59  2F81               	goto	l3733
  5966  0F5A                     u4240:
  5967  0F5A                     l3715:
  5968  0F5A  3000               	movlw	0
  5969  0F5B  00A3               	movwf	?___fladd+3
  5970  0F5C  3000               	movlw	0
  5971  0F5D  00A2               	movwf	?___fladd+2
  5972  0F5E  3000               	movlw	0
  5973  0F5F  00A1               	movwf	?___fladd+1
  5974  0F60  3000               	movlw	0
  5975  0F61  00A0               	movwf	?___fladd
  5976  0F62  2FFF               	goto	l705
  5977  0F63                     l3719:
  5978  0F63  3001               	movlw	1
  5979  0F64  00A8               	movwf	??___fladd
  5980  0F65                     u4255:
  5981  0F65  1003               	clrc
  5982  0F66  0DA0               	rlf	___fladd@b,f
  5983  0F67  0DA1               	rlf	___fladd@b+1,f
  5984  0F68  0DA2               	rlf	___fladd@b+2,f
  5985  0F69  0DA3               	rlf	___fladd@b+3,f
  5986  0F6A  0BA8               	decfsz	??___fladd,f
  5987  0F6B  2F65               	goto	u4255
  5988  0F6C                     l3721:
  5989  0F6C  1FF6               	btfss	___fladd@grs,7
  5990  0F6D  2F6F               	goto	u4261
  5991  0F6E  2F70               	goto	u4260
  5992  0F6F                     u4261:
  5993  0F6F  2F71               	goto	l717
  5994  0F70                     u4260:
  5995  0F70                     l3723:
  5996  0F70  1420               	bsf	___fladd@b,0
  5997  0F71                     l717:
  5998  0F71  1C76               	btfss	___fladd@grs,0
  5999  0F72  2F74               	goto	u4271
  6000  0F73  2F75               	goto	u4270
  6001  0F74                     u4271:
  6002  0F74  2F78               	goto	l3727
  6003  0F75                     u4270:
  6004  0F75                     l3725:
  6005  0F75  1403               	setc
  6006  0F76  0DF6               	rlf	___fladd@grs,f
  6007  0F77  2F7A               	goto	l3729
  6008  0F78                     l3727:
  6009  0F78  1003               	clrc
  6010  0F79  0DF6               	rlf	___fladd@grs,f
  6011  0F7A                     l3729:
  6012  0F7A  0875               	movf	___fladd@bexp,w
  6013  0F7B  1903               	btfsc	3,2
  6014  0F7C  2F7E               	goto	u4281
  6015  0F7D  2F7F               	goto	u4280
  6016  0F7E                     u4281:
  6017  0F7E  2F81               	goto	l3733
  6018  0F7F                     u4280:
  6019  0F7F                     l3731:
  6020  0F7F  3001               	movlw	1
  6021  0F80  02F5               	subwf	___fladd@bexp,f
  6022  0F81                     l3733:
  6023  0F81  1FA2               	btfss	___fladd@b+2,7
  6024  0F82  2F84               	goto	u4291
  6025  0F83  2F85               	goto	u4290
  6026  0F84                     u4291:
  6027  0F84  2F63               	goto	l3719
  6028  0F85                     u4290:
  6029  0F85                     l3735:
  6030  0F85  01F4               	clrf	___fladd@aexp
  6031  0F86                     l3737:
  6032  0F86  1FF6               	btfss	___fladd@grs,7
  6033  0F87  2F89               	goto	u4301
  6034  0F88  2F8A               	goto	u4300
  6035  0F89                     u4301:
  6036  0F89  2F98               	goto	l3745
  6037  0F8A                     u4300:
  6038  0F8A                     l3739:
  6039  0F8A  0876               	movf	___fladd@grs,w
  6040  0F8B  397F               	andlw	127
  6041  0F8C  1903               	btfsc	3,2
  6042  0F8D  2F8F               	goto	u4311
  6043  0F8E  2F90               	goto	u4310
  6044  0F8F                     u4311:
  6045  0F8F  2F93               	goto	l723
  6046  0F90                     u4310:
  6047  0F90                     l3741:
  6048  0F90  01F4               	clrf	___fladd@aexp
  6049  0F91  0AF4               	incf	___fladd@aexp,f
  6050  0F92  2F98               	goto	l3745
  6051  0F93                     l723:
  6052  0F93  1C20               	btfss	___fladd@b,0
  6053  0F94  2F96               	goto	u4321
  6054  0F95  2F97               	goto	u4320
  6055  0F96                     u4321:
  6056  0F96  2F98               	goto	l3745
  6057  0F97                     u4320:
  6058  0F97  2F90               	goto	l3741
  6059  0F98                     l3745:
  6060  0F98  0874               	movf	___fladd@aexp,w
  6061  0F99  1903               	btfsc	3,2
  6062  0F9A  2F9C               	goto	u4331
  6063  0F9B  2F9D               	goto	u4330
  6064  0F9C                     u4331:
  6065  0F9C  2FD1               	goto	l726
  6066  0F9D                     u4330:
  6067  0F9D                     l3747:
  6068  0F9D  3001               	movlw	1
  6069  0F9E  07A0               	addwf	___fladd@b,f
  6070  0F9F  3000               	movlw	0
  6071  0FA0  1803               	skipnc
  6072  0FA1  3001               	movlw	1
  6073  0FA2  07A1               	addwf	___fladd@b+1,f
  6074  0FA3  3000               	movlw	0
  6075  0FA4  1803               	skipnc
  6076  0FA5  3001               	movlw	1
  6077  0FA6  07A2               	addwf	___fladd@b+2,f
  6078  0FA7  3000               	movlw	0
  6079  0FA8  1803               	skipnc
  6080  0FA9  3001               	movlw	1
  6081  0FAA  07A3               	addwf	___fladd@b+3,f
  6082  0FAB                     l3749:
  6083  0FAB  1C23               	btfss	___fladd@b+3,0
  6084  0FAC  2FAE               	goto	u4341
  6085  0FAD  2FAF               	goto	u4340
  6086  0FAE                     u4341:
  6087  0FAE  2FD1               	goto	l726
  6088  0FAF                     u4340:
  6089  0FAF                     l3751:
  6090  0FAF  0820               	movf	___fladd@b,w
  6091  0FB0  00A8               	movwf	??___fladd
  6092  0FB1  0821               	movf	___fladd@b+1,w
  6093  0FB2  00A9               	movwf	??___fladd+1
  6094  0FB3  0822               	movf	___fladd@b+2,w
  6095  0FB4  00AA               	movwf	??___fladd+2
  6096  0FB5  0823               	movf	___fladd@b+3,w
  6097  0FB6  00AB               	movwf	??___fladd+3
  6098  0FB7  3001               	movlw	1
  6099  0FB8  00AC               	movwf	??___fladd+4
  6100  0FB9                     u4355:
  6101  0FB9  0D2B               	rlf	??___fladd+3,w
  6102  0FBA  0CAB               	rrf	??___fladd+3,f
  6103  0FBB  0CAA               	rrf	??___fladd+2,f
  6104  0FBC  0CA9               	rrf	??___fladd+1,f
  6105  0FBD  0CA8               	rrf	??___fladd,f
  6106  0FBE                     u4350:
  6107  0FBE  0BAC               	decfsz	??___fladd+4,f
  6108  0FBF  2FB9               	goto	u4355
  6109  0FC0  082B               	movf	??___fladd+3,w
  6110  0FC1  00A3               	movwf	___fladd@b+3
  6111  0FC2  082A               	movf	??___fladd+2,w
  6112  0FC3  00A2               	movwf	___fladd@b+2
  6113  0FC4  0829               	movf	??___fladd+1,w
  6114  0FC5  00A1               	movwf	___fladd@b+1
  6115  0FC6  0828               	movf	??___fladd,w
  6116  0FC7  00A0               	movwf	___fladd@b
  6117  0FC8  0A75               	incf	___fladd@bexp,w
  6118  0FC9  1903               	btfsc	3,2
  6119  0FCA  2FCC               	goto	u4361
  6120  0FCB  2FCD               	goto	u4360
  6121  0FCC                     u4361:
  6122  0FCC  2FD1               	goto	l726
  6123  0FCD                     u4360:
  6124  0FCD                     l3753:
  6125  0FCD  3001               	movlw	1
  6126  0FCE  00A8               	movwf	??___fladd
  6127  0FCF  0828               	movf	??___fladd,w
  6128  0FD0  07F5               	addwf	___fladd@bexp,f
  6129  0FD1                     l726:
  6130  0FD1  0A75               	incf	___fladd@bexp,w
  6131  0FD2  1903               	btfsc	3,2
  6132  0FD3  2FD5               	goto	u4371
  6133  0FD4  2FD6               	goto	u4370
  6134  0FD5                     u4371:
  6135  0FD5  2FDB               	goto	l3757
  6136  0FD6                     u4370:
  6137  0FD6                     l3755:
  6138  0FD6  0875               	movf	___fladd@bexp,w
  6139  0FD7  1D03               	btfss	3,2
  6140  0FD8  2FDA               	goto	u4381
  6141  0FD9  2FDB               	goto	u4380
  6142  0FDA                     u4381:
  6143  0FDA  2FE9               	goto	l3763
  6144  0FDB                     u4380:
  6145  0FDB                     l3757:
  6146  0FDB  3000               	movlw	0
  6147  0FDC  00A3               	movwf	___fladd@b+3
  6148  0FDD  3000               	movlw	0
  6149  0FDE  00A2               	movwf	___fladd@b+2
  6150  0FDF  3000               	movlw	0
  6151  0FE0  00A1               	movwf	___fladd@b+1
  6152  0FE1  3000               	movlw	0
  6153  0FE2  00A0               	movwf	___fladd@b
  6154  0FE3                     l3759:
  6155  0FE3  0875               	movf	___fladd@bexp,w
  6156  0FE4  1D03               	btfss	3,2
  6157  0FE5  2FE7               	goto	u4391
  6158  0FE6  2FE8               	goto	u4390
  6159  0FE7                     u4391:
  6160  0FE7  2FE9               	goto	l3763
  6161  0FE8                     u4390:
  6162  0FE8                     l3761:
  6163  0FE8  01F3               	clrf	___fladd@signs
  6164  0FE9                     l3763:
  6165  0FE9  1C75               	btfss	___fladd@bexp,0
  6166  0FEA  2FEC               	goto	u4401
  6167  0FEB  2FED               	goto	u4400
  6168  0FEC                     u4401:
  6169  0FEC  2FEF               	goto	l3767
  6170  0FED                     u4400:
  6171  0FED                     l3765:
  6172  0FED  17A2               	bsf	___fladd@b+2,7
  6173  0FEE  2FF3               	goto	l734
  6174  0FEF                     l3767:
  6175  0FEF  307F               	movlw	127
  6176  0FF0  00A8               	movwf	??___fladd
  6177  0FF1  0828               	movf	??___fladd,w
  6178  0FF2  05A2               	andwf	___fladd@b+2,f
  6179  0FF3                     l734:
  6180  0FF3  0875               	movf	___fladd@bexp,w
  6181  0FF4  00A8               	movwf	??___fladd
  6182  0FF5  1003               	clrc
  6183  0FF6  0C28               	rrf	??___fladd,w
  6184  0FF7  00A9               	movwf	??___fladd+1
  6185  0FF8  0829               	movf	??___fladd+1,w
  6186  0FF9  00A3               	movwf	___fladd@b+3
  6187  0FFA                     l3769:
  6188  0FFA  1FF3               	btfss	___fladd@signs,7
  6189  0FFB  2FFD               	goto	u4411
  6190  0FFC  2FFE               	goto	u4410
  6191  0FFD                     u4411:
  6192  0FFD  2FFF               	goto	l735
  6193  0FFE                     u4410:
  6194  0FFE                     l3771:
  6195  0FFE  17A3               	bsf	___fladd@b+3,7
  6196  0FFF                     l735:
  6197  0FFF                     l705:
  6198  0FFF  0008               	return
  6199  1000                     __end_of___fladd:
  6200                           
  6201                           	psect	text12
  6202  043E                     __ptext12:	
  6203 ;; *************** function ___flmul *****************
  6204 ;; Defined at:
  6205 ;;		line 8 in file "C:\Program Files\Microchip\xc8\v2.32\pic\sources\c90\common\sprcmul.c"
  6206 ;; Parameters:    Size  Location     Type
  6207 ;;  b               4   10[BANK0 ] unsigned char 
  6208 ;;  a               4   14[BANK0 ] unsigned char 
  6209 ;; Auto vars:     Size  Location     Type
  6210 ;;  prod            4   30[BANK0 ] struct .
  6211 ;;  grs             4   25[BANK0 ] unsigned long 
  6212 ;;  temp            2   34[BANK0 ] struct .
  6213 ;;  bexp            1   29[BANK0 ] unsigned char 
  6214 ;;  aexp            1   24[BANK0 ] unsigned char 
  6215 ;;  sign            1   23[BANK0 ] unsigned char 
  6216 ;; Return value:  Size  Location     Type
  6217 ;;                  4   10[BANK0 ] unsigned char 
  6218 ;; Registers used:
  6219 ;;		wreg, status,2, status,0, btemp+1, pclath, cstack
  6220 ;; Tracked objects:
  6221 ;;		On entry : 0/0
  6222 ;;		On exit  : 0/0
  6223 ;;		Unchanged: 0/0
  6224 ;; Data sizes:     COMMON   BANK0   BANK1   BANK3   BANK2
  6225 ;;      Params:         0       8       0       0       0
  6226 ;;      Locals:         0      13       0       0       0
  6227 ;;      Temps:          0       5       0       0       0
  6228 ;;      Totals:         0      26       0       0       0
  6229 ;;Total ram usage:       26 bytes
  6230 ;; Hardware stack levels used: 1
  6231 ;; Hardware stack levels required when called: 2
  6232 ;; This function calls:
  6233 ;;		__Umul8_16
  6234 ;; This function is called by:
  6235 ;;		_run_program
  6236 ;; This function uses a non-reentrant model
  6237 ;;
  6238                           
  6239                           
  6240                           ;psect for function ___flmul
  6241  043E                     ___flmul:
  6242  043E                     l4113:	
  6243                           ;incstack = 0
  6244                           ; Regs used in ___flmul: [wreg+status,2+status,0+btemp+1+pclath+cstack]
  6245                           
  6246  043E  1283               	bcf	3,5	;RP0=0, select bank0
  6247  043F  1303               	bcf	3,6	;RP1=0, select bank0
  6248  0440  082D               	movf	___flmul@b+3,w
  6249  0441  3980               	andlw	128
  6250  0442  00B2               	movwf	??___flmul
  6251  0443  0832               	movf	??___flmul,w
  6252  0444  00B7               	movwf	___flmul@sign
  6253  0445                     l4115:
  6254  0445  082D               	movf	___flmul@b+3,w
  6255  0446  00B2               	movwf	??___flmul
  6256  0447  0732               	addwf	??___flmul,w
  6257  0448  00B3               	movwf	??___flmul+1
  6258  0449  0833               	movf	??___flmul+1,w
  6259  044A  00BD               	movwf	___flmul@bexp
  6260  044B                     l4117:
  6261  044B  1FAC               	btfss	___flmul@b+2,7
  6262  044C  2C4E               	goto	u4871
  6263  044D  2C4F               	goto	u4870
  6264  044E                     u4871:
  6265  044E  2C50               	goto	l4121
  6266  044F                     u4870:
  6267  044F                     l4119:
  6268  044F  143D               	bsf	___flmul@bexp,0
  6269  0450                     l4121:
  6270  0450  083D               	movf	___flmul@bexp,w
  6271  0451  1903               	btfsc	3,2
  6272  0452  2C54               	goto	u4881
  6273  0453  2C55               	goto	u4880
  6274  0454                     u4881:
  6275  0454  2C64               	goto	l4129
  6276  0455                     u4880:
  6277  0455                     l4123:
  6278  0455  0A3D               	incf	___flmul@bexp,w
  6279  0456  1D03               	btfss	3,2
  6280  0457  2C59               	goto	u4891
  6281  0458  2C5A               	goto	u4890
  6282  0459                     u4891:
  6283  0459  2C62               	goto	l4127
  6284  045A                     u4890:
  6285  045A                     l4125:
  6286  045A  3000               	movlw	0
  6287  045B  00AD               	movwf	___flmul@b+3
  6288  045C  3000               	movlw	0
  6289  045D  00AC               	movwf	___flmul@b+2
  6290  045E  3000               	movlw	0
  6291  045F  00AB               	movwf	___flmul@b+1
  6292  0460  3000               	movlw	0
  6293  0461  00AA               	movwf	___flmul@b
  6294  0462                     l4127:
  6295  0462  17AC               	bsf	___flmul@b+2,7
  6296  0463  2C6C               	goto	l4131
  6297  0464                     l4129:
  6298  0464  3000               	movlw	0
  6299  0465  00AD               	movwf	___flmul@b+3
  6300  0466  3000               	movlw	0
  6301  0467  00AC               	movwf	___flmul@b+2
  6302  0468  3000               	movlw	0
  6303  0469  00AB               	movwf	___flmul@b+1
  6304  046A  3000               	movlw	0
  6305  046B  00AA               	movwf	___flmul@b
  6306  046C                     l4131:
  6307  046C  0831               	movf	___flmul@a+3,w
  6308  046D  3980               	andlw	128
  6309  046E  00B2               	movwf	??___flmul
  6310  046F  0832               	movf	??___flmul,w
  6311  0470  06B7               	xorwf	___flmul@sign,f
  6312  0471                     l4133:
  6313  0471  0831               	movf	___flmul@a+3,w
  6314  0472  00B2               	movwf	??___flmul
  6315  0473  0732               	addwf	??___flmul,w
  6316  0474  00B3               	movwf	??___flmul+1
  6317  0475  0833               	movf	??___flmul+1,w
  6318  0476  00B8               	movwf	___flmul@aexp
  6319  0477                     l4135:
  6320  0477  1FB0               	btfss	___flmul@a+2,7
  6321  0478  2C7A               	goto	u4901
  6322  0479  2C7B               	goto	u4900
  6323  047A                     u4901:
  6324  047A  2C7C               	goto	l4139
  6325  047B                     u4900:
  6326  047B                     l4137:
  6327  047B  1438               	bsf	___flmul@aexp,0
  6328  047C                     l4139:
  6329  047C  0838               	movf	___flmul@aexp,w
  6330  047D  1903               	btfsc	3,2
  6331  047E  2C80               	goto	u4911
  6332  047F  2C81               	goto	u4910
  6333  0480                     u4911:
  6334  0480  2C90               	goto	l4147
  6335  0481                     u4910:
  6336  0481                     l4141:
  6337  0481  0A38               	incf	___flmul@aexp,w
  6338  0482  1D03               	btfss	3,2
  6339  0483  2C85               	goto	u4921
  6340  0484  2C86               	goto	u4920
  6341  0485                     u4921:
  6342  0485  2C8E               	goto	l4145
  6343  0486                     u4920:
  6344  0486                     l4143:
  6345  0486  3000               	movlw	0
  6346  0487  00B1               	movwf	___flmul@a+3
  6347  0488  3000               	movlw	0
  6348  0489  00B0               	movwf	___flmul@a+2
  6349  048A  3000               	movlw	0
  6350  048B  00AF               	movwf	___flmul@a+1
  6351  048C  3000               	movlw	0
  6352  048D  00AE               	movwf	___flmul@a
  6353  048E                     l4145:
  6354  048E  17B0               	bsf	___flmul@a+2,7
  6355  048F  2C98               	goto	l4149
  6356  0490                     l4147:
  6357  0490  3000               	movlw	0
  6358  0491  00B1               	movwf	___flmul@a+3
  6359  0492  3000               	movlw	0
  6360  0493  00B0               	movwf	___flmul@a+2
  6361  0494  3000               	movlw	0
  6362  0495  00AF               	movwf	___flmul@a+1
  6363  0496  3000               	movlw	0
  6364  0497  00AE               	movwf	___flmul@a
  6365  0498                     l4149:
  6366  0498  0838               	movf	___flmul@aexp,w
  6367  0499  1903               	btfsc	3,2
  6368  049A  2C9C               	goto	u4931
  6369  049B  2C9D               	goto	u4930
  6370  049C                     u4931:
  6371  049C  2CA2               	goto	l4153
  6372  049D                     u4930:
  6373  049D                     l4151:
  6374  049D  083D               	movf	___flmul@bexp,w
  6375  049E  1D03               	btfss	3,2
  6376  049F  2CA1               	goto	u4941
  6377  04A0  2CA2               	goto	u4940
  6378  04A1                     u4941:
  6379  04A1  2CAB               	goto	l4157
  6380  04A2                     u4940:
  6381  04A2                     l4153:
  6382  04A2  3000               	movlw	0
  6383  04A3  00AD               	movwf	?___flmul+3
  6384  04A4  3000               	movlw	0
  6385  04A5  00AC               	movwf	?___flmul+2
  6386  04A6  3000               	movlw	0
  6387  04A7  00AB               	movwf	?___flmul+1
  6388  04A8  3000               	movlw	0
  6389  04A9  00AA               	movwf	?___flmul
  6390  04AA  2F9E               	goto	l788
  6391  04AB                     l4157:
  6392  04AB  082A               	movf	___flmul@b,w
  6393  04AC  00B2               	movwf	??___flmul
  6394  04AD  0832               	movf	??___flmul,w
  6395  04AE  00F3               	movwf	__Umul8_16@multiplicand
  6396  04AF  0830               	movf	___flmul@a+2,w
  6397  04B0  160A  118A  23B7  120A  118A  	fcall	__Umul8_16
  6398  04B5  0874               	movf	?__Umul8_16+1,w
  6399  04B6  1283               	bcf	3,5	;RP0=0, select bank0
  6400  04B7  1303               	bcf	3,6	;RP1=0, select bank0
  6401  04B8  00C3               	movwf	___flmul@temp+1
  6402  04B9  0873               	movf	?__Umul8_16,w
  6403  04BA  00C2               	movwf	___flmul@temp
  6404  04BB                     l4159:
  6405  04BB  0842               	movf	___flmul@temp,w
  6406  04BC  00B2               	movwf	??___flmul
  6407  04BD  01B3               	clrf	??___flmul+1
  6408  04BE  01B4               	clrf	??___flmul+2
  6409  04BF  01B5               	clrf	??___flmul+3
  6410  04C0  0835               	movf	??___flmul+3,w
  6411  04C1  00BC               	movwf	___flmul@grs+3
  6412  04C2  0834               	movf	??___flmul+2,w
  6413  04C3  00BB               	movwf	___flmul@grs+2
  6414  04C4  0833               	movf	??___flmul+1,w
  6415  04C5  00BA               	movwf	___flmul@grs+1
  6416  04C6  0832               	movf	??___flmul,w
  6417  04C7  00B9               	movwf	___flmul@grs
  6418  04C8                     l4161:
  6419  04C8  0843               	movf	___flmul@temp+1,w
  6420  04C9  00B2               	movwf	??___flmul
  6421  04CA  01B3               	clrf	??___flmul+1
  6422  04CB  01B4               	clrf	??___flmul+2
  6423  04CC  01B5               	clrf	??___flmul+3
  6424  04CD  0835               	movf	??___flmul+3,w
  6425  04CE  00C1               	movwf	___flmul@prod+3
  6426  04CF  0834               	movf	??___flmul+2,w
  6427  04D0  00C0               	movwf	___flmul@prod+2
  6428  04D1  0833               	movf	??___flmul+1,w
  6429  04D2  00BF               	movwf	___flmul@prod+1
  6430  04D3  0832               	movf	??___flmul,w
  6431  04D4  00BE               	movwf	___flmul@prod
  6432  04D5  082B               	movf	___flmul@b+1,w
  6433  04D6  00B2               	movwf	??___flmul
  6434  04D7  0832               	movf	??___flmul,w
  6435  04D8  00F3               	movwf	__Umul8_16@multiplicand
  6436  04D9  082F               	movf	___flmul@a+1,w
  6437  04DA  160A  118A  23B7  120A  118A  	fcall	__Umul8_16
  6438  04DF  0874               	movf	?__Umul8_16+1,w
  6439  04E0  1283               	bcf	3,5	;RP0=0, select bank0
  6440  04E1  1303               	bcf	3,6	;RP1=0, select bank0
  6441  04E2  00C3               	movwf	___flmul@temp+1
  6442  04E3  0873               	movf	?__Umul8_16,w
  6443  04E4  00C2               	movwf	___flmul@temp
  6444  04E5                     l4163:
  6445  04E5  0842               	movf	___flmul@temp,w
  6446  04E6  00B2               	movwf	??___flmul
  6447  04E7  01B3               	clrf	??___flmul+1
  6448  04E8  01B4               	clrf	??___flmul+2
  6449  04E9  01B5               	clrf	??___flmul+3
  6450  04EA  0832               	movf	??___flmul,w
  6451  04EB  07B9               	addwf	___flmul@grs,f
  6452  04EC  0833               	movf	??___flmul+1,w
  6453  04ED  1103               	clrz
  6454  04EE  1803               	skipnc
  6455  04EF  3E01               	addlw	1
  6456  04F0  1903               	skipnz
  6457  04F1  2CF3               	goto	u4951
  6458  04F2  07BA               	addwf	___flmul@grs+1,f
  6459  04F3                     u4951:
  6460  04F3  0834               	movf	??___flmul+2,w
  6461  04F4  1103               	clrz
  6462  04F5  1803               	skipnc
  6463  04F6  3E01               	addlw	1
  6464  04F7  1903               	skipnz
  6465  04F8  2CFA               	goto	u4952
  6466  04F9  07BB               	addwf	___flmul@grs+2,f
  6467  04FA                     u4952:
  6468  04FA  0835               	movf	??___flmul+3,w
  6469  04FB  1103               	clrz
  6470  04FC  1803               	skipnc
  6471  04FD  3E01               	addlw	1
  6472  04FE  1903               	skipnz
  6473  04FF  2D01               	goto	u4953
  6474  0500  07BC               	addwf	___flmul@grs+3,f
  6475  0501                     u4953:
  6476  0501                     l4165:
  6477  0501  0843               	movf	___flmul@temp+1,w
  6478  0502  00B2               	movwf	??___flmul
  6479  0503  01B3               	clrf	??___flmul+1
  6480  0504  01B4               	clrf	??___flmul+2
  6481  0505  01B5               	clrf	??___flmul+3
  6482  0506  0832               	movf	??___flmul,w
  6483  0507  07BE               	addwf	___flmul@prod,f
  6484  0508  0833               	movf	??___flmul+1,w
  6485  0509  1103               	clrz
  6486  050A  1803               	skipnc
  6487  050B  3E01               	addlw	1
  6488  050C  1903               	skipnz
  6489  050D  2D0F               	goto	u4961
  6490  050E  07BF               	addwf	___flmul@prod+1,f
  6491  050F                     u4961:
  6492  050F  0834               	movf	??___flmul+2,w
  6493  0510  1103               	clrz
  6494  0511  1803               	skipnc
  6495  0512  3E01               	addlw	1
  6496  0513  1903               	skipnz
  6497  0514  2D16               	goto	u4962
  6498  0515  07C0               	addwf	___flmul@prod+2,f
  6499  0516                     u4962:
  6500  0516  0835               	movf	??___flmul+3,w
  6501  0517  1103               	clrz
  6502  0518  1803               	skipnc
  6503  0519  3E01               	addlw	1
  6504  051A  1903               	skipnz
  6505  051B  2D1D               	goto	u4963
  6506  051C  07C1               	addwf	___flmul@prod+3,f
  6507  051D                     u4963:
  6508  051D  082C               	movf	___flmul@b+2,w
  6509  051E  00B2               	movwf	??___flmul
  6510  051F  0832               	movf	??___flmul,w
  6511  0520  00F3               	movwf	__Umul8_16@multiplicand
  6512  0521  082E               	movf	___flmul@a,w
  6513  0522  160A  118A  23B7  120A  118A  	fcall	__Umul8_16
  6514  0527  0874               	movf	?__Umul8_16+1,w
  6515  0528  1283               	bcf	3,5	;RP0=0, select bank0
  6516  0529  1303               	bcf	3,6	;RP1=0, select bank0
  6517  052A  00C3               	movwf	___flmul@temp+1
  6518  052B  0873               	movf	?__Umul8_16,w
  6519  052C  00C2               	movwf	___flmul@temp
  6520  052D                     l4167:
  6521  052D  0842               	movf	___flmul@temp,w
  6522  052E  00B2               	movwf	??___flmul
  6523  052F  01B3               	clrf	??___flmul+1
  6524  0530  01B4               	clrf	??___flmul+2
  6525  0531  01B5               	clrf	??___flmul+3
  6526  0532  0832               	movf	??___flmul,w
  6527  0533  07B9               	addwf	___flmul@grs,f
  6528  0534  0833               	movf	??___flmul+1,w
  6529  0535  1103               	clrz
  6530  0536  1803               	skipnc
  6531  0537  3E01               	addlw	1
  6532  0538  1903               	skipnz
  6533  0539  2D3B               	goto	u4971
  6534  053A  07BA               	addwf	___flmul@grs+1,f
  6535  053B                     u4971:
  6536  053B  0834               	movf	??___flmul+2,w
  6537  053C  1103               	clrz
  6538  053D  1803               	skipnc
  6539  053E  3E01               	addlw	1
  6540  053F  1903               	skipnz
  6541  0540  2D42               	goto	u4972
  6542  0541  07BB               	addwf	___flmul@grs+2,f
  6543  0542                     u4972:
  6544  0542  0835               	movf	??___flmul+3,w
  6545  0543  1103               	clrz
  6546  0544  1803               	skipnc
  6547  0545  3E01               	addlw	1
  6548  0546  1903               	skipnz
  6549  0547  2D49               	goto	u4973
  6550  0548  07BC               	addwf	___flmul@grs+3,f
  6551  0549                     u4973:
  6552  0549                     l4169:
  6553  0549  0843               	movf	___flmul@temp+1,w
  6554  054A  00B2               	movwf	??___flmul
  6555  054B  01B3               	clrf	??___flmul+1
  6556  054C  01B4               	clrf	??___flmul+2
  6557  054D  01B5               	clrf	??___flmul+3
  6558  054E  0832               	movf	??___flmul,w
  6559  054F  07BE               	addwf	___flmul@prod,f
  6560  0550  0833               	movf	??___flmul+1,w
  6561  0551  1103               	clrz
  6562  0552  1803               	skipnc
  6563  0553  3E01               	addlw	1
  6564  0554  1903               	skipnz
  6565  0555  2D57               	goto	u4981
  6566  0556  07BF               	addwf	___flmul@prod+1,f
  6567  0557                     u4981:
  6568  0557  0834               	movf	??___flmul+2,w
  6569  0558  1103               	clrz
  6570  0559  1803               	skipnc
  6571  055A  3E01               	addlw	1
  6572  055B  1903               	skipnz
  6573  055C  2D5E               	goto	u4982
  6574  055D  07C0               	addwf	___flmul@prod+2,f
  6575  055E                     u4982:
  6576  055E  0835               	movf	??___flmul+3,w
  6577  055F  1103               	clrz
  6578  0560  1803               	skipnc
  6579  0561  3E01               	addlw	1
  6580  0562  1903               	skipnz
  6581  0563  2D65               	goto	u4983
  6582  0564  07C1               	addwf	___flmul@prod+3,f
  6583  0565                     u4983:
  6584  0565                     l4171:
  6585  0565  3008               	movlw	8
  6586  0566  00B2               	movwf	??___flmul
  6587  0567                     u4995:
  6588  0567  1003               	clrc
  6589  0568  0DB9               	rlf	___flmul@grs,f
  6590  0569  0DBA               	rlf	___flmul@grs+1,f
  6591  056A  0DBB               	rlf	___flmul@grs+2,f
  6592  056B  0DBC               	rlf	___flmul@grs+3,f
  6593  056C  0BB2               	decfsz	??___flmul,f
  6594  056D  2D67               	goto	u4995
  6595  056E                     l4173:
  6596  056E  082B               	movf	___flmul@b+1,w
  6597  056F  00B2               	movwf	??___flmul
  6598  0570  0832               	movf	??___flmul,w
  6599  0571  00F3               	movwf	__Umul8_16@multiplicand
  6600  0572  082E               	movf	___flmul@a,w
  6601  0573  160A  118A  23B7  120A  118A  	fcall	__Umul8_16
  6602  0578  0874               	movf	?__Umul8_16+1,w
  6603  0579  1283               	bcf	3,5	;RP0=0, select bank0
  6604  057A  1303               	bcf	3,6	;RP1=0, select bank0
  6605  057B  00C3               	movwf	___flmul@temp+1
  6606  057C  0873               	movf	?__Umul8_16,w
  6607  057D  00C2               	movwf	___flmul@temp
  6608  057E                     l4175:
  6609  057E  0842               	movf	___flmul@temp,w
  6610  057F  00B2               	movwf	??___flmul
  6611  0580  0843               	movf	___flmul@temp+1,w
  6612  0581  00B3               	movwf	??___flmul+1
  6613  0582  01B4               	clrf	??___flmul+2
  6614  0583  01B5               	clrf	??___flmul+3
  6615  0584  0832               	movf	??___flmul,w
  6616  0585  07B9               	addwf	___flmul@grs,f
  6617  0586  0833               	movf	??___flmul+1,w
  6618  0587  1103               	clrz
  6619  0588  1803               	skipnc
  6620  0589  3E01               	addlw	1
  6621  058A  1903               	skipnz
  6622  058B  2D8D               	goto	u5001
  6623  058C  07BA               	addwf	___flmul@grs+1,f
  6624  058D                     u5001:
  6625  058D  0834               	movf	??___flmul+2,w
  6626  058E  1103               	clrz
  6627  058F  1803               	skipnc
  6628  0590  3E01               	addlw	1
  6629  0591  1903               	skipnz
  6630  0592  2D94               	goto	u5002
  6631  0593  07BB               	addwf	___flmul@grs+2,f
  6632  0594                     u5002:
  6633  0594  0835               	movf	??___flmul+3,w
  6634  0595  1103               	clrz
  6635  0596  1803               	skipnc
  6636  0597  3E01               	addlw	1
  6637  0598  1903               	skipnz
  6638  0599  2D9B               	goto	u5003
  6639  059A  07BC               	addwf	___flmul@grs+3,f
  6640  059B                     u5003:
  6641  059B                     l4177:
  6642  059B  082A               	movf	___flmul@b,w
  6643  059C  00B2               	movwf	??___flmul
  6644  059D  0832               	movf	??___flmul,w
  6645  059E  00F3               	movwf	__Umul8_16@multiplicand
  6646  059F  082F               	movf	___flmul@a+1,w
  6647  05A0  160A  118A  23B7  120A  118A  	fcall	__Umul8_16
  6648  05A5  0874               	movf	?__Umul8_16+1,w
  6649  05A6  1283               	bcf	3,5	;RP0=0, select bank0
  6650  05A7  1303               	bcf	3,6	;RP1=0, select bank0
  6651  05A8  00C3               	movwf	___flmul@temp+1
  6652  05A9  0873               	movf	?__Umul8_16,w
  6653  05AA  00C2               	movwf	___flmul@temp
  6654  05AB                     l4179:
  6655  05AB  0842               	movf	___flmul@temp,w
  6656  05AC  00B2               	movwf	??___flmul
  6657  05AD  0843               	movf	___flmul@temp+1,w
  6658  05AE  00B3               	movwf	??___flmul+1
  6659  05AF  01B4               	clrf	??___flmul+2
  6660  05B0  01B5               	clrf	??___flmul+3
  6661  05B1  0832               	movf	??___flmul,w
  6662  05B2  07B9               	addwf	___flmul@grs,f
  6663  05B3  0833               	movf	??___flmul+1,w
  6664  05B4  1103               	clrz
  6665  05B5  1803               	skipnc
  6666  05B6  3E01               	addlw	1
  6667  05B7  1903               	skipnz
  6668  05B8  2DBA               	goto	u5011
  6669  05B9  07BA               	addwf	___flmul@grs+1,f
  6670  05BA                     u5011:
  6671  05BA  0834               	movf	??___flmul+2,w
  6672  05BB  1103               	clrz
  6673  05BC  1803               	skipnc
  6674  05BD  3E01               	addlw	1
  6675  05BE  1903               	skipnz
  6676  05BF  2DC1               	goto	u5012
  6677  05C0  07BB               	addwf	___flmul@grs+2,f
  6678  05C1                     u5012:
  6679  05C1  0835               	movf	??___flmul+3,w
  6680  05C2  1103               	clrz
  6681  05C3  1803               	skipnc
  6682  05C4  3E01               	addlw	1
  6683  05C5  1903               	skipnz
  6684  05C6  2DC8               	goto	u5013
  6685  05C7  07BC               	addwf	___flmul@grs+3,f
  6686  05C8                     u5013:
  6687  05C8                     l4181:
  6688  05C8  3008               	movlw	8
  6689  05C9  00B2               	movwf	??___flmul
  6690  05CA                     u5025:
  6691  05CA  1003               	clrc
  6692  05CB  0DB9               	rlf	___flmul@grs,f
  6693  05CC  0DBA               	rlf	___flmul@grs+1,f
  6694  05CD  0DBB               	rlf	___flmul@grs+2,f
  6695  05CE  0DBC               	rlf	___flmul@grs+3,f
  6696  05CF  0BB2               	decfsz	??___flmul,f
  6697  05D0  2DCA               	goto	u5025
  6698  05D1  082A               	movf	___flmul@b,w
  6699  05D2  00B2               	movwf	??___flmul
  6700  05D3  0832               	movf	??___flmul,w
  6701  05D4  00F3               	movwf	__Umul8_16@multiplicand
  6702  05D5  082E               	movf	___flmul@a,w
  6703  05D6  160A  118A  23B7  120A  118A  	fcall	__Umul8_16
  6704  05DB  0874               	movf	?__Umul8_16+1,w
  6705  05DC  1283               	bcf	3,5	;RP0=0, select bank0
  6706  05DD  1303               	bcf	3,6	;RP1=0, select bank0
  6707  05DE  00C3               	movwf	___flmul@temp+1
  6708  05DF  0873               	movf	?__Umul8_16,w
  6709  05E0  00C2               	movwf	___flmul@temp
  6710  05E1                     l4183:
  6711  05E1  0842               	movf	___flmul@temp,w
  6712  05E2  00B2               	movwf	??___flmul
  6713  05E3  0843               	movf	___flmul@temp+1,w
  6714  05E4  00B3               	movwf	??___flmul+1
  6715  05E5  01B4               	clrf	??___flmul+2
  6716  05E6  01B5               	clrf	??___flmul+3
  6717  05E7  0832               	movf	??___flmul,w
  6718  05E8  07B9               	addwf	___flmul@grs,f
  6719  05E9  0833               	movf	??___flmul+1,w
  6720  05EA  1103               	clrz
  6721  05EB  1803               	skipnc
  6722  05EC  3E01               	addlw	1
  6723  05ED  1903               	skipnz
  6724  05EE  2DF0               	goto	u5031
  6725  05EF  07BA               	addwf	___flmul@grs+1,f
  6726  05F0                     u5031:
  6727  05F0  0834               	movf	??___flmul+2,w
  6728  05F1  1103               	clrz
  6729  05F2  1803               	skipnc
  6730  05F3  3E01               	addlw	1
  6731  05F4  1903               	skipnz
  6732  05F5  2DF7               	goto	u5032
  6733  05F6  07BB               	addwf	___flmul@grs+2,f
  6734  05F7                     u5032:
  6735  05F7  0835               	movf	??___flmul+3,w
  6736  05F8  1103               	clrz
  6737  05F9  1803               	skipnc
  6738  05FA  3E01               	addlw	1
  6739  05FB  1903               	skipnz
  6740  05FC  2DFE               	goto	u5033
  6741  05FD  07BC               	addwf	___flmul@grs+3,f
  6742  05FE                     u5033:
  6743  05FE                     l4185:
  6744  05FE  082B               	movf	___flmul@b+1,w
  6745  05FF  00B2               	movwf	??___flmul
  6746  0600  0832               	movf	??___flmul,w
  6747  0601  00F3               	movwf	__Umul8_16@multiplicand
  6748  0602  0830               	movf	___flmul@a+2,w
  6749  0603  160A  118A  23B7  120A  118A  	fcall	__Umul8_16
  6750  0608  0874               	movf	?__Umul8_16+1,w
  6751  0609  1283               	bcf	3,5	;RP0=0, select bank0
  6752  060A  1303               	bcf	3,6	;RP1=0, select bank0
  6753  060B  00C3               	movwf	___flmul@temp+1
  6754  060C  0873               	movf	?__Umul8_16,w
  6755  060D  00C2               	movwf	___flmul@temp
  6756  060E  0842               	movf	___flmul@temp,w
  6757  060F  00B2               	movwf	??___flmul
  6758  0610  0843               	movf	___flmul@temp+1,w
  6759  0611  00B3               	movwf	??___flmul+1
  6760  0612  01B4               	clrf	??___flmul+2
  6761  0613  01B5               	clrf	??___flmul+3
  6762  0614  0832               	movf	??___flmul,w
  6763  0615  07BE               	addwf	___flmul@prod,f
  6764  0616  0833               	movf	??___flmul+1,w
  6765  0617  1103               	clrz
  6766  0618  1803               	skipnc
  6767  0619  3E01               	addlw	1
  6768  061A  1903               	skipnz
  6769  061B  2E1D               	goto	u5041
  6770  061C  07BF               	addwf	___flmul@prod+1,f
  6771  061D                     u5041:
  6772  061D  0834               	movf	??___flmul+2,w
  6773  061E  1103               	clrz
  6774  061F  1803               	skipnc
  6775  0620  3E01               	addlw	1
  6776  0621  1903               	skipnz
  6777  0622  2E24               	goto	u5042
  6778  0623  07C0               	addwf	___flmul@prod+2,f
  6779  0624                     u5042:
  6780  0624  0835               	movf	??___flmul+3,w
  6781  0625  1103               	clrz
  6782  0626  1803               	skipnc
  6783  0627  3E01               	addlw	1
  6784  0628  1903               	skipnz
  6785  0629  2E2B               	goto	u5043
  6786  062A  07C1               	addwf	___flmul@prod+3,f
  6787  062B                     u5043:
  6788  062B                     l4187:
  6789  062B  082C               	movf	___flmul@b+2,w
  6790  062C  00B2               	movwf	??___flmul
  6791  062D  0832               	movf	??___flmul,w
  6792  062E  00F3               	movwf	__Umul8_16@multiplicand
  6793  062F  082F               	movf	___flmul@a+1,w
  6794  0630  160A  118A  23B7  120A  118A  	fcall	__Umul8_16
  6795  0635  0874               	movf	?__Umul8_16+1,w
  6796  0636  1283               	bcf	3,5	;RP0=0, select bank0
  6797  0637  1303               	bcf	3,6	;RP1=0, select bank0
  6798  0638  00C3               	movwf	___flmul@temp+1
  6799  0639  0873               	movf	?__Umul8_16,w
  6800  063A  00C2               	movwf	___flmul@temp
  6801  063B                     l4189:
  6802  063B  0842               	movf	___flmul@temp,w
  6803  063C  00B2               	movwf	??___flmul
  6804  063D  0843               	movf	___flmul@temp+1,w
  6805  063E  00B3               	movwf	??___flmul+1
  6806  063F  01B4               	clrf	??___flmul+2
  6807  0640  01B5               	clrf	??___flmul+3
  6808  0641  0832               	movf	??___flmul,w
  6809  0642  07BE               	addwf	___flmul@prod,f
  6810  0643  0833               	movf	??___flmul+1,w
  6811  0644  1103               	clrz
  6812  0645  1803               	skipnc
  6813  0646  3E01               	addlw	1
  6814  0647  1903               	skipnz
  6815  0648  2E4A               	goto	u5051
  6816  0649  07BF               	addwf	___flmul@prod+1,f
  6817  064A                     u5051:
  6818  064A  0834               	movf	??___flmul+2,w
  6819  064B  1103               	clrz
  6820  064C  1803               	skipnc
  6821  064D  3E01               	addlw	1
  6822  064E  1903               	skipnz
  6823  064F  2E51               	goto	u5052
  6824  0650  07C0               	addwf	___flmul@prod+2,f
  6825  0651                     u5052:
  6826  0651  0835               	movf	??___flmul+3,w
  6827  0652  1103               	clrz
  6828  0653  1803               	skipnc
  6829  0654  3E01               	addlw	1
  6830  0655  1903               	skipnz
  6831  0656  2E58               	goto	u5053
  6832  0657  07C1               	addwf	___flmul@prod+3,f
  6833  0658                     u5053:
  6834  0658  082C               	movf	___flmul@b+2,w
  6835  0659  00B2               	movwf	??___flmul
  6836  065A  0832               	movf	??___flmul,w
  6837  065B  00F3               	movwf	__Umul8_16@multiplicand
  6838  065C  0830               	movf	___flmul@a+2,w
  6839  065D  160A  118A  23B7  120A  118A  	fcall	__Umul8_16
  6840  0662  0874               	movf	?__Umul8_16+1,w
  6841  0663  1283               	bcf	3,5	;RP0=0, select bank0
  6842  0664  1303               	bcf	3,6	;RP1=0, select bank0
  6843  0665  00C3               	movwf	___flmul@temp+1
  6844  0666  0873               	movf	?__Umul8_16,w
  6845  0667  00C2               	movwf	___flmul@temp
  6846  0668                     l4191:
  6847  0668  0842               	movf	___flmul@temp,w
  6848  0669  00B2               	movwf	??___flmul
  6849  066A  0843               	movf	___flmul@temp+1,w
  6850  066B  00B3               	movwf	??___flmul+1
  6851  066C  01B4               	clrf	??___flmul+2
  6852  066D  01B5               	clrf	??___flmul+3
  6853  066E  3008               	movlw	8
  6854  066F                     u5065:
  6855  066F  1003               	clrc
  6856  0670  0DB2               	rlf	??___flmul,f
  6857  0671  0DB3               	rlf	??___flmul+1,f
  6858  0672  0DB4               	rlf	??___flmul+2,f
  6859  0673  0DB5               	rlf	??___flmul+3,f
  6860  0674                     u5060:
  6861  0674  3EFF               	addlw	-1
  6862  0675  1D03               	skipz
  6863  0676  2E6F               	goto	u5065
  6864  0677  0832               	movf	??___flmul,w
  6865  0678  07BE               	addwf	___flmul@prod,f
  6866  0679  0833               	movf	??___flmul+1,w
  6867  067A  1103               	clrz
  6868  067B  1803               	skipnc
  6869  067C  3E01               	addlw	1
  6870  067D  1903               	skipnz
  6871  067E  2E80               	goto	u5071
  6872  067F  07BF               	addwf	___flmul@prod+1,f
  6873  0680                     u5071:
  6874  0680  0834               	movf	??___flmul+2,w
  6875  0681  1103               	clrz
  6876  0682  1803               	skipnc
  6877  0683  3E01               	addlw	1
  6878  0684  1903               	skipnz
  6879  0685  2E87               	goto	u5072
  6880  0686  07C0               	addwf	___flmul@prod+2,f
  6881  0687                     u5072:
  6882  0687  0835               	movf	??___flmul+3,w
  6883  0688  1103               	clrz
  6884  0689  1803               	skipnc
  6885  068A  3E01               	addlw	1
  6886  068B  1903               	skipnz
  6887  068C  2E8E               	goto	u5073
  6888  068D  07C1               	addwf	___flmul@prod+3,f
  6889  068E                     u5073:
  6890  068E                     l4193:
  6891  068E  0839               	movf	___flmul@grs,w
  6892  068F  00B2               	movwf	??___flmul
  6893  0690  083A               	movf	___flmul@grs+1,w
  6894  0691  00B3               	movwf	??___flmul+1
  6895  0692  083B               	movf	___flmul@grs+2,w
  6896  0693  00B4               	movwf	??___flmul+2
  6897  0694  083C               	movf	___flmul@grs+3,w
  6898  0695  00B5               	movwf	??___flmul+3
  6899  0696  3018               	movlw	24
  6900  0697                     u5085:
  6901  0697  1003               	clrc
  6902  0698  0CB5               	rrf	??___flmul+3,f
  6903  0699  0CB4               	rrf	??___flmul+2,f
  6904  069A  0CB3               	rrf	??___flmul+1,f
  6905  069B  0CB2               	rrf	??___flmul,f
  6906  069C                     u5080:
  6907  069C  3EFF               	addlw	-1
  6908  069D  1D03               	skipz
  6909  069E  2E97               	goto	u5085
  6910  069F  0832               	movf	??___flmul,w
  6911  06A0  07BE               	addwf	___flmul@prod,f
  6912  06A1  0833               	movf	??___flmul+1,w
  6913  06A2  1103               	clrz
  6914  06A3  1803               	skipnc
  6915  06A4  3E01               	addlw	1
  6916  06A5  1903               	skipnz
  6917  06A6  2EA8               	goto	u5091
  6918  06A7  07BF               	addwf	___flmul@prod+1,f
  6919  06A8                     u5091:
  6920  06A8  0834               	movf	??___flmul+2,w
  6921  06A9  1103               	clrz
  6922  06AA  1803               	skipnc
  6923  06AB  3E01               	addlw	1
  6924  06AC  1903               	skipnz
  6925  06AD  2EAF               	goto	u5092
  6926  06AE  07C0               	addwf	___flmul@prod+2,f
  6927  06AF                     u5092:
  6928  06AF  0835               	movf	??___flmul+3,w
  6929  06B0  1103               	clrz
  6930  06B1  1803               	skipnc
  6931  06B2  3E01               	addlw	1
  6932  06B3  1903               	skipnz
  6933  06B4  2EB6               	goto	u5093
  6934  06B5  07C1               	addwf	___flmul@prod+3,f
  6935  06B6                     u5093:
  6936  06B6                     l4195:
  6937  06B6  3008               	movlw	8
  6938  06B7  00B2               	movwf	??___flmul
  6939  06B8                     u5105:
  6940  06B8  1003               	clrc
  6941  06B9  0DB9               	rlf	___flmul@grs,f
  6942  06BA  0DBA               	rlf	___flmul@grs+1,f
  6943  06BB  0DBB               	rlf	___flmul@grs+2,f
  6944  06BC  0DBC               	rlf	___flmul@grs+3,f
  6945  06BD  0BB2               	decfsz	??___flmul,f
  6946  06BE  2EB8               	goto	u5105
  6947  06BF                     l4197:
  6948  06BF  083D               	movf	___flmul@bexp,w
  6949  06C0  0738               	addwf	___flmul@aexp,w
  6950  06C1  00B2               	movwf	??___flmul
  6951  06C2  01B3               	clrf	??___flmul+1
  6952  06C3  0DB3               	rlf	??___flmul+1,f
  6953  06C4  0832               	movf	??___flmul,w
  6954  06C5  3E82               	addlw	130
  6955  06C6  00C2               	movwf	___flmul@temp
  6956  06C7  0833               	movf	??___flmul+1,w
  6957  06C8  1803               	skipnc
  6958  06C9  3E01               	addlw	1
  6959  06CA  3EFF               	addlw	255
  6960  06CB  00C3               	movwf	___flmul@temp+1
  6961  06CC  2EEA               	goto	l4209
  6962  06CD                     l4199:
  6963  06CD  3001               	movlw	1
  6964  06CE  00B2               	movwf	??___flmul
  6965  06CF                     u5115:
  6966  06CF  1003               	clrc
  6967  06D0  0DBE               	rlf	___flmul@prod,f
  6968  06D1  0DBF               	rlf	___flmul@prod+1,f
  6969  06D2  0DC0               	rlf	___flmul@prod+2,f
  6970  06D3  0DC1               	rlf	___flmul@prod+3,f
  6971  06D4  0BB2               	decfsz	??___flmul,f
  6972  06D5  2ECF               	goto	u5115
  6973  06D6                     l4201:
  6974  06D6  1FBC               	btfss	___flmul@grs+3,7
  6975  06D7  2ED9               	goto	u5121
  6976  06D8  2EDA               	goto	u5120
  6977  06D9                     u5121:
  6978  06D9  2EDB               	goto	l4205
  6979  06DA                     u5120:
  6980  06DA                     l4203:
  6981  06DA  143E               	bsf	___flmul@prod,0
  6982  06DB                     l4205:
  6983  06DB  3001               	movlw	1
  6984  06DC  00B2               	movwf	??___flmul
  6985  06DD                     u5135:
  6986  06DD  1003               	clrc
  6987  06DE  0DB9               	rlf	___flmul@grs,f
  6988  06DF  0DBA               	rlf	___flmul@grs+1,f
  6989  06E0  0DBB               	rlf	___flmul@grs+2,f
  6990  06E1  0DBC               	rlf	___flmul@grs+3,f
  6991  06E2  0BB2               	decfsz	??___flmul,f
  6992  06E3  2EDD               	goto	u5135
  6993  06E4                     l4207:
  6994  06E4  30FF               	movlw	255
  6995  06E5  07C2               	addwf	___flmul@temp,f
  6996  06E6  1803               	skipnc
  6997  06E7  0AC3               	incf	___flmul@temp+1,f
  6998  06E8  30FF               	movlw	255
  6999  06E9  07C3               	addwf	___flmul@temp+1,f
  7000  06EA                     l4209:
  7001  06EA  1FC0               	btfss	___flmul@prod+2,7
  7002  06EB  2EED               	goto	u5141
  7003  06EC  2EEE               	goto	u5140
  7004  06ED                     u5141:
  7005  06ED  2ECD               	goto	l4199
  7006  06EE                     u5140:
  7007  06EE                     l4211:
  7008  06EE  01B8               	clrf	___flmul@aexp
  7009  06EF                     l4213:
  7010  06EF  1FBC               	btfss	___flmul@grs+3,7
  7011  06F0  2EF2               	goto	u5151
  7012  06F1  2EF3               	goto	u5150
  7013  06F2                     u5151:
  7014  06F2  2F0F               	goto	l4221
  7015  06F3                     u5150:
  7016  06F3                     l4215:
  7017  06F3  30FF               	movlw	255
  7018  06F4  0539               	andwf	___flmul@grs,w
  7019  06F5  00B2               	movwf	??___flmul
  7020  06F6  30FF               	movlw	255
  7021  06F7  053A               	andwf	___flmul@grs+1,w
  7022  06F8  00B3               	movwf	??___flmul+1
  7023  06F9  30FF               	movlw	255
  7024  06FA  053B               	andwf	___flmul@grs+2,w
  7025  06FB  00B4               	movwf	??___flmul+2
  7026  06FC  307F               	movlw	127
  7027  06FD  053C               	andwf	___flmul@grs+3,w
  7028  06FE  00B5               	movwf	??___flmul+3
  7029  06FF  0835               	movf	??___flmul+3,w
  7030  0700  0434               	iorwf	??___flmul+2,w
  7031  0701  0433               	iorwf	??___flmul+1,w
  7032  0702  0432               	iorwf	??___flmul,w
  7033  0703  1903               	skipnz
  7034  0704  2F06               	goto	u5161
  7035  0705  2F07               	goto	u5160
  7036  0706                     u5161:
  7037  0706  2F0A               	goto	l794
  7038  0707                     u5160:
  7039  0707                     l4217:
  7040  0707  01B8               	clrf	___flmul@aexp
  7041  0708  0AB8               	incf	___flmul@aexp,f
  7042  0709  2F0F               	goto	l4221
  7043  070A                     l794:
  7044  070A  1C3E               	btfss	___flmul@prod,0
  7045  070B  2F0D               	goto	u5171
  7046  070C  2F0E               	goto	u5170
  7047  070D                     u5171:
  7048  070D  2F0F               	goto	l4221
  7049  070E                     u5170:
  7050  070E  2F07               	goto	l4217
  7051  070F                     l4221:
  7052  070F  0838               	movf	___flmul@aexp,w
  7053  0710  1903               	btfsc	3,2
  7054  0711  2F13               	goto	u5181
  7055  0712  2F14               	goto	u5180
  7056  0713                     u5181:
  7057  0713  2F45               	goto	l4231
  7058  0714                     u5180:
  7059  0714                     l4223:
  7060  0714  3001               	movlw	1
  7061  0715  07BE               	addwf	___flmul@prod,f
  7062  0716  3000               	movlw	0
  7063  0717  1803               	skipnc
  7064  0718  3001               	movlw	1
  7065  0719  07BF               	addwf	___flmul@prod+1,f
  7066  071A  3000               	movlw	0
  7067  071B  1803               	skipnc
  7068  071C  3001               	movlw	1
  7069  071D  07C0               	addwf	___flmul@prod+2,f
  7070  071E  3000               	movlw	0
  7071  071F  1803               	skipnc
  7072  0720  3001               	movlw	1
  7073  0721  07C1               	addwf	___flmul@prod+3,f
  7074  0722                     l4225:
  7075  0722  1C41               	btfss	___flmul@prod+3,0
  7076  0723  2F25               	goto	u5191
  7077  0724  2F26               	goto	u5190
  7078  0725                     u5191:
  7079  0725  2F45               	goto	l4231
  7080  0726                     u5190:
  7081  0726                     l4227:
  7082  0726  083E               	movf	___flmul@prod,w
  7083  0727  00B2               	movwf	??___flmul
  7084  0728  083F               	movf	___flmul@prod+1,w
  7085  0729  00B3               	movwf	??___flmul+1
  7086  072A  0840               	movf	___flmul@prod+2,w
  7087  072B  00B4               	movwf	??___flmul+2
  7088  072C  0841               	movf	___flmul@prod+3,w
  7089  072D  00B5               	movwf	??___flmul+3
  7090  072E  3001               	movlw	1
  7091  072F  00B6               	movwf	??___flmul+4
  7092  0730                     u5205:
  7093  0730  0D35               	rlf	??___flmul+3,w
  7094  0731  0CB5               	rrf	??___flmul+3,f
  7095  0732  0CB4               	rrf	??___flmul+2,f
  7096  0733  0CB3               	rrf	??___flmul+1,f
  7097  0734  0CB2               	rrf	??___flmul,f
  7098  0735                     u5200:
  7099  0735  0BB6               	decfsz	??___flmul+4,f
  7100  0736  2F30               	goto	u5205
  7101  0737  0835               	movf	??___flmul+3,w
  7102  0738  00C1               	movwf	___flmul@prod+3
  7103  0739  0834               	movf	??___flmul+2,w
  7104  073A  00C0               	movwf	___flmul@prod+2
  7105  073B  0833               	movf	??___flmul+1,w
  7106  073C  00BF               	movwf	___flmul@prod+1
  7107  073D  0832               	movf	??___flmul,w
  7108  073E  00BE               	movwf	___flmul@prod
  7109  073F                     l4229:
  7110  073F  3001               	movlw	1
  7111  0740  07C2               	addwf	___flmul@temp,f
  7112  0741  1803               	skipnc
  7113  0742  0AC3               	incf	___flmul@temp+1,f
  7114  0743  3000               	movlw	0
  7115  0744  07C3               	addwf	___flmul@temp+1,f
  7116  0745                     l4231:
  7117  0745  0843               	movf	___flmul@temp+1,w
  7118  0746  3A80               	xorlw	128
  7119  0747  00FF               	movwf	btemp+1
  7120  0748  3080               	movlw	128
  7121  0749  027F               	subwf	btemp+1,w
  7122  074A  1D03               	skipz
  7123  074B  2F4E               	goto	u5215
  7124  074C  30FF               	movlw	255
  7125  074D  0242               	subwf	___flmul@temp,w
  7126  074E                     u5215:
  7127  074E  1C03               	skipc
  7128  074F  2F51               	goto	u5211
  7129  0750  2F52               	goto	u5210
  7130  0751                     u5211:
  7131  0751  2F5D               	goto	l4235
  7132  0752                     u5210:
  7133  0752                     l4233:
  7134  0752  307F               	movlw	127
  7135  0753  1283               	bcf	3,5	;RP0=0, select bank0
  7136  0754  1303               	bcf	3,6	;RP1=0, select bank0
  7137  0755  00C1               	movwf	___flmul@prod+3
  7138  0756  3080               	movlw	128
  7139  0757  00C0               	movwf	___flmul@prod+2
  7140  0758  3000               	movlw	0
  7141  0759  00BF               	movwf	___flmul@prod+1
  7142  075A  3000               	movlw	0
  7143  075B  00BE               	movwf	___flmul@prod
  7144  075C  2F92               	goto	l800
  7145  075D                     l4235:
  7146  075D  1283               	bcf	3,5	;RP0=0, select bank0
  7147  075E  1303               	bcf	3,6	;RP1=0, select bank0
  7148  075F  0843               	movf	___flmul@temp+1,w
  7149  0760  3A80               	xorlw	128
  7150  0761  00FF               	movwf	btemp+1
  7151  0762  3080               	movlw	128
  7152  0763  027F               	subwf	btemp+1,w
  7153  0764  1D03               	skipz
  7154  0765  2F68               	goto	u5225
  7155  0766  3001               	movlw	1
  7156  0767  0242               	subwf	___flmul@temp,w
  7157  0768                     u5225:
  7158  0768  1803               	skipnc
  7159  0769  2F6B               	goto	u5221
  7160  076A  2F6C               	goto	u5220
  7161  076B                     u5221:
  7162  076B  2F78               	goto	l4241
  7163  076C                     u5220:
  7164  076C                     l4237:
  7165  076C  3000               	movlw	0
  7166  076D  1283               	bcf	3,5	;RP0=0, select bank0
  7167  076E  1303               	bcf	3,6	;RP1=0, select bank0
  7168  076F  00C1               	movwf	___flmul@prod+3
  7169  0770  3000               	movlw	0
  7170  0771  00C0               	movwf	___flmul@prod+2
  7171  0772  3000               	movlw	0
  7172  0773  00BF               	movwf	___flmul@prod+1
  7173  0774  3000               	movlw	0
  7174  0775  00BE               	movwf	___flmul@prod
  7175  0776                     l4239:
  7176  0776  01B7               	clrf	___flmul@sign
  7177  0777  2F92               	goto	l800
  7178  0778                     l4241:
  7179  0778  1283               	bcf	3,5	;RP0=0, select bank0
  7180  0779  1303               	bcf	3,6	;RP1=0, select bank0
  7181  077A  0842               	movf	___flmul@temp,w
  7182  077B  00B2               	movwf	??___flmul
  7183  077C  0832               	movf	??___flmul,w
  7184  077D  00BD               	movwf	___flmul@bexp
  7185  077E  30FF               	movlw	255
  7186  077F  05BE               	andwf	___flmul@prod,f
  7187  0780  30FF               	movlw	255
  7188  0781  05BF               	andwf	___flmul@prod+1,f
  7189  0782  307F               	movlw	127
  7190  0783  05C0               	andwf	___flmul@prod+2,f
  7191  0784  3000               	movlw	0
  7192  0785  05C1               	andwf	___flmul@prod+3,f
  7193  0786                     l4243:
  7194  0786  1C3D               	btfss	___flmul@bexp,0
  7195  0787  2F89               	goto	u5231
  7196  0788  2F8A               	goto	u5230
  7197  0789                     u5231:
  7198  0789  2F8B               	goto	l4247
  7199  078A                     u5230:
  7200  078A                     l4245:
  7201  078A  17C0               	bsf	___flmul@prod+2,7
  7202  078B                     l4247:
  7203  078B  083D               	movf	___flmul@bexp,w
  7204  078C  00B2               	movwf	??___flmul
  7205  078D  1003               	clrc
  7206  078E  0C32               	rrf	??___flmul,w
  7207  078F  00B3               	movwf	??___flmul+1
  7208  0790  0833               	movf	??___flmul+1,w
  7209  0791  00C1               	movwf	___flmul@prod+3
  7210  0792                     l800:
  7211  0792  0837               	movf	___flmul@sign,w
  7212  0793  00B2               	movwf	??___flmul
  7213  0794  0832               	movf	??___flmul,w
  7214  0795  04C1               	iorwf	___flmul@prod+3,f
  7215  0796                     l4249:
  7216  0796  0841               	movf	___flmul@prod+3,w
  7217  0797  00AD               	movwf	?___flmul+3
  7218  0798  0840               	movf	___flmul@prod+2,w
  7219  0799  00AC               	movwf	?___flmul+2
  7220  079A  083F               	movf	___flmul@prod+1,w
  7221  079B  00AB               	movwf	?___flmul+1
  7222  079C  083E               	movf	___flmul@prod,w
  7223  079D  00AA               	movwf	?___flmul
  7224  079E                     l788:
  7225  079E  0008               	return
  7226  079F                     __end_of___flmul:
  7227                           
  7228                           	psect	text13
  7229  13B7                     __ptext13:	
  7230 ;; *************** function __Umul8_16 *****************
  7231 ;; Defined at:
  7232 ;;		line 4 in file "C:\Program Files\Microchip\xc8\v2.32\pic\sources\c90\common\Umul8_16.c"
  7233 ;; Parameters:    Size  Location     Type
  7234 ;;  multiplier      1    wreg     unsigned char 
  7235 ;;  multiplicand    1    3[COMMON] unsigned char 
  7236 ;; Auto vars:     Size  Location     Type
  7237 ;;  multiplier      1    4[BANK0 ] unsigned char 
  7238 ;;  word_mpld       2    2[BANK0 ] unsigned int 
  7239 ;;  product         2    0[BANK0 ] unsigned int 
  7240 ;; Return value:  Size  Location     Type
  7241 ;;                  2    3[COMMON] unsigned int 
  7242 ;; Registers used:
  7243 ;;		wreg, status,2, status,0
  7244 ;; Tracked objects:
  7245 ;;		On entry : 0/0
  7246 ;;		On exit  : 0/0
  7247 ;;		Unchanged: 0/0
  7248 ;; Data sizes:     COMMON   BANK0   BANK1   BANK3   BANK2
  7249 ;;      Params:         2       0       0       0       0
  7250 ;;      Locals:         0       5       0       0       0
  7251 ;;      Temps:          2       0       0       0       0
  7252 ;;      Totals:         4       5       0       0       0
  7253 ;;Total ram usage:        9 bytes
  7254 ;; Hardware stack levels used: 1
  7255 ;; Hardware stack levels required when called: 1
  7256 ;; This function calls:
  7257 ;;		Nothing
  7258 ;; This function is called by:
  7259 ;;		___flmul
  7260 ;; This function uses a non-reentrant model
  7261 ;;
  7262                           
  7263                           
  7264                           ;psect for function __Umul8_16
  7265  13B7                     __Umul8_16:
  7266                           
  7267                           ;incstack = 0
  7268                           ; Regs used in __Umul8_16: [wreg+status,2+status,0]
  7269                           ;__Umul8_16@multiplier stored from wreg
  7270  13B7  1283               	bcf	3,5	;RP0=0, select bank0
  7271  13B8  1303               	bcf	3,6	;RP1=0, select bank0
  7272  13B9  00A4               	movwf	__Umul8_16@multiplier
  7273  13BA                     l3773:
  7274  13BA  01A0               	clrf	__Umul8_16@product
  7275  13BB  01A1               	clrf	__Umul8_16@product+1
  7276  13BC                     l3775:
  7277  13BC  0873               	movf	__Umul8_16@multiplicand,w
  7278  13BD  00F5               	movwf	??__Umul8_16
  7279  13BE  01F6               	clrf	??__Umul8_16+1
  7280  13BF  0875               	movf	??__Umul8_16,w
  7281  13C0  00A2               	movwf	__Umul8_16@word_mpld
  7282  13C1  0876               	movf	??__Umul8_16+1,w
  7283  13C2  00A3               	movwf	__Umul8_16@word_mpld+1
  7284  13C3                     l3777:
  7285  13C3  1C24               	btfss	__Umul8_16@multiplier,0
  7286  13C4  2BC6               	goto	u4421
  7287  13C5  2BC7               	goto	u4420
  7288  13C6                     u4421:
  7289  13C6  2BCD               	goto	l807
  7290  13C7                     u4420:
  7291  13C7                     l3779:
  7292  13C7  0822               	movf	__Umul8_16@word_mpld,w
  7293  13C8  07A0               	addwf	__Umul8_16@product,f
  7294  13C9  1803               	skipnc
  7295  13CA  0AA1               	incf	__Umul8_16@product+1,f
  7296  13CB  0823               	movf	__Umul8_16@word_mpld+1,w
  7297  13CC  07A1               	addwf	__Umul8_16@product+1,f
  7298  13CD                     l807:
  7299  13CD  3001               	movlw	1
  7300  13CE                     u4435:
  7301  13CE  1003               	clrc
  7302  13CF  0DA2               	rlf	__Umul8_16@word_mpld,f
  7303  13D0  0DA3               	rlf	__Umul8_16@word_mpld+1,f
  7304  13D1  3EFF               	addlw	-1
  7305  13D2  1D03               	skipz
  7306  13D3  2BCE               	goto	u4435
  7307  13D4  1003               	clrc
  7308  13D5  0CA4               	rrf	__Umul8_16@multiplier,f
  7309  13D6                     l3781:
  7310  13D6  0824               	movf	__Umul8_16@multiplier,w
  7311  13D7  1D03               	btfss	3,2
  7312  13D8  2BDA               	goto	u4441
  7313  13D9  2BDB               	goto	u4440
  7314  13DA                     u4441:
  7315  13DA  2BC3               	goto	l3777
  7316  13DB                     u4440:
  7317  13DB                     l3783:
  7318  13DB  0821               	movf	__Umul8_16@product+1,w
  7319  13DC  00F4               	movwf	?__Umul8_16+1
  7320  13DD  0820               	movf	__Umul8_16@product,w
  7321  13DE  00F3               	movwf	?__Umul8_16
  7322  13DF                     l809:
  7323  13DF  0008               	return
  7324  13E0                     __end_of__Umul8_16:
  7325                           
  7326                           	psect	text14
  7327  175C                     __ptext14:	
  7328 ;; *************** function ___flge *****************
  7329 ;; Defined at:
  7330 ;;		line 4 in file "C:\Program Files\Microchip\xc8\v2.32\pic\sources\c90\common\flge.c"
  7331 ;; Parameters:    Size  Location     Type
  7332 ;;  ff1             4   44[BANK0 ] unsigned int 
  7333 ;;  ff2             4   48[BANK0 ] unsigned int 
  7334 ;; Auto vars:     Size  Location     Type
  7335 ;;		None
  7336 ;; Return value:  Size  Location     Type
  7337 ;;		None               void
  7338 ;; Registers used:
  7339 ;;		wreg, status,2, status,0
  7340 ;; Tracked objects:
  7341 ;;		On entry : 0/0
  7342 ;;		On exit  : 0/0
  7343 ;;		Unchanged: 0/0
  7344 ;; Data sizes:     COMMON   BANK0   BANK1   BANK3   BANK2
  7345 ;;      Params:         0       8       0       0       0
  7346 ;;      Locals:         0       0       0       0       0
  7347 ;;      Temps:          0       4       0       0       0
  7348 ;;      Totals:         0      12       0       0       0
  7349 ;;Total ram usage:       12 bytes
  7350 ;; Hardware stack levels used: 1
  7351 ;; Hardware stack levels required when called: 1
  7352 ;; This function calls:
  7353 ;;		Nothing
  7354 ;; This function is called by:
  7355 ;;		_run_program
  7356 ;; This function uses a non-reentrant model
  7357 ;;
  7358                           
  7359                           
  7360                           ;psect for function ___flge
  7361  175C                     ___flge:
  7362  175C                     l4051:	
  7363                           ;incstack = 0
  7364                           ; Regs used in ___flge: [wreg+status,2+status,0]
  7365                           
  7366  175C  3000               	movlw	0
  7367  175D  1283               	bcf	3,5	;RP0=0, select bank0
  7368  175E  1303               	bcf	3,6	;RP1=0, select bank0
  7369  175F  054C               	andwf	___flge@ff1,w
  7370  1760  00D4               	movwf	??___flge
  7371  1761  3000               	movlw	0
  7372  1762  054D               	andwf	___flge@ff1+1,w
  7373  1763  00D5               	movwf	??___flge+1
  7374  1764  3080               	movlw	128
  7375  1765  054E               	andwf	___flge@ff1+2,w
  7376  1766  00D6               	movwf	??___flge+2
  7377  1767  307F               	movlw	127
  7378  1768  054F               	andwf	___flge@ff1+3,w
  7379  1769  00D7               	movwf	??___flge+3
  7380  176A  0857               	movf	??___flge+3,w
  7381  176B  0456               	iorwf	??___flge+2,w
  7382  176C  0455               	iorwf	??___flge+1,w
  7383  176D  0454               	iorwf	??___flge,w
  7384  176E  1D03               	skipz
  7385  176F  2F71               	goto	u4701
  7386  1770  2F72               	goto	u4700
  7387  1771                     u4701:
  7388  1771  2F7A               	goto	l573
  7389  1772                     u4700:
  7390  1772                     l4053:
  7391  1772  3000               	movlw	0
  7392  1773  00CF               	movwf	___flge@ff1+3
  7393  1774  3000               	movlw	0
  7394  1775  00CE               	movwf	___flge@ff1+2
  7395  1776  3000               	movlw	0
  7396  1777  00CD               	movwf	___flge@ff1+1
  7397  1778  3000               	movlw	0
  7398  1779  00CC               	movwf	___flge@ff1
  7399  177A                     l573:
  7400  177A  3000               	movlw	0
  7401  177B  0550               	andwf	___flge@ff2,w
  7402  177C  00D4               	movwf	??___flge
  7403  177D  3000               	movlw	0
  7404  177E  0551               	andwf	___flge@ff2+1,w
  7405  177F  00D5               	movwf	??___flge+1
  7406  1780  3080               	movlw	128
  7407  1781  0552               	andwf	___flge@ff2+2,w
  7408  1782  00D6               	movwf	??___flge+2
  7409  1783  307F               	movlw	127
  7410  1784  0553               	andwf	___flge@ff2+3,w
  7411  1785  00D7               	movwf	??___flge+3
  7412  1786  0857               	movf	??___flge+3,w
  7413  1787  0456               	iorwf	??___flge+2,w
  7414  1788  0455               	iorwf	??___flge+1,w
  7415  1789  0454               	iorwf	??___flge,w
  7416  178A  1D03               	skipz
  7417  178B  2F8D               	goto	u4711
  7418  178C  2F8E               	goto	u4710
  7419  178D                     u4711:
  7420  178D  2F96               	goto	l4057
  7421  178E                     u4710:
  7422  178E                     l4055:
  7423  178E  3000               	movlw	0
  7424  178F  00D3               	movwf	___flge@ff2+3
  7425  1790  3000               	movlw	0
  7426  1791  00D2               	movwf	___flge@ff2+2
  7427  1792  3000               	movlw	0
  7428  1793  00D1               	movwf	___flge@ff2+1
  7429  1794  3000               	movlw	0
  7430  1795  00D0               	movwf	___flge@ff2
  7431  1796                     l4057:
  7432  1796  1FCF               	btfss	___flge@ff1+3,7
  7433  1797  2F99               	goto	u4721
  7434  1798  2F9A               	goto	u4720
  7435  1799                     u4721:
  7436  1799  2FBE               	goto	l4061
  7437  179A                     u4720:
  7438  179A                     l4059:
  7439  179A  3000               	movlw	0
  7440  179B  00D4               	movwf	??___flge
  7441  179C  3000               	movlw	0
  7442  179D  00D5               	movwf	??___flge+1
  7443  179E  3000               	movlw	0
  7444  179F  00D6               	movwf	??___flge+2
  7445  17A0  3080               	movlw	128
  7446  17A1  00D7               	movwf	??___flge+3
  7447  17A2  084C               	movf	___flge@ff1,w
  7448  17A3  02D4               	subwf	??___flge,f
  7449  17A4  084D               	movf	___flge@ff1+1,w
  7450  17A5  1C03               	skipc
  7451  17A6  0F4D               	incfsz	___flge@ff1+1,w
  7452  17A7  2FA9               	goto	u4731
  7453  17A8  2FAA               	goto	u4732
  7454  17A9                     u4731:
  7455  17A9  02D5               	subwf	??___flge+1,f
  7456  17AA                     u4732:
  7457  17AA  084E               	movf	___flge@ff1+2,w
  7458  17AB  1C03               	skipc
  7459  17AC  0F4E               	incfsz	___flge@ff1+2,w
  7460  17AD  2FAF               	goto	u4733
  7461  17AE  2FB0               	goto	u4734
  7462  17AF                     u4733:
  7463  17AF  02D6               	subwf	??___flge+2,f
  7464  17B0                     u4734:
  7465  17B0  084F               	movf	___flge@ff1+3,w
  7466  17B1  1C03               	skipc
  7467  17B2  0F4F               	incfsz	___flge@ff1+3,w
  7468  17B3  2FB5               	goto	u4735
  7469  17B4  2FB6               	goto	u4736
  7470  17B5                     u4735:
  7471  17B5  02D7               	subwf	??___flge+3,f
  7472  17B6                     u4736:
  7473  17B6  0857               	movf	??___flge+3,w
  7474  17B7  00CF               	movwf	___flge@ff1+3
  7475  17B8  0856               	movf	??___flge+2,w
  7476  17B9  00CE               	movwf	___flge@ff1+2
  7477  17BA  0855               	movf	??___flge+1,w
  7478  17BB  00CD               	movwf	___flge@ff1+1
  7479  17BC  0854               	movf	??___flge,w
  7480  17BD  00CC               	movwf	___flge@ff1
  7481  17BE                     l4061:
  7482  17BE  1FD3               	btfss	___flge@ff2+3,7
  7483  17BF  2FC1               	goto	u4741
  7484  17C0  2FC2               	goto	u4740
  7485  17C1                     u4741:
  7486  17C1  2FE6               	goto	l576
  7487  17C2                     u4740:
  7488  17C2                     l4063:
  7489  17C2  3000               	movlw	0
  7490  17C3  00D4               	movwf	??___flge
  7491  17C4  3000               	movlw	0
  7492  17C5  00D5               	movwf	??___flge+1
  7493  17C6  3000               	movlw	0
  7494  17C7  00D6               	movwf	??___flge+2
  7495  17C8  3080               	movlw	128
  7496  17C9  00D7               	movwf	??___flge+3
  7497  17CA  0850               	movf	___flge@ff2,w
  7498  17CB  02D4               	subwf	??___flge,f
  7499  17CC  0851               	movf	___flge@ff2+1,w
  7500  17CD  1C03               	skipc
  7501  17CE  0F51               	incfsz	___flge@ff2+1,w
  7502  17CF  2FD1               	goto	u4751
  7503  17D0  2FD2               	goto	u4752
  7504  17D1                     u4751:
  7505  17D1  02D5               	subwf	??___flge+1,f
  7506  17D2                     u4752:
  7507  17D2  0852               	movf	___flge@ff2+2,w
  7508  17D3  1C03               	skipc
  7509  17D4  0F52               	incfsz	___flge@ff2+2,w
  7510  17D5  2FD7               	goto	u4753
  7511  17D6  2FD8               	goto	u4754
  7512  17D7                     u4753:
  7513  17D7  02D6               	subwf	??___flge+2,f
  7514  17D8                     u4754:
  7515  17D8  0853               	movf	___flge@ff2+3,w
  7516  17D9  1C03               	skipc
  7517  17DA  0F53               	incfsz	___flge@ff2+3,w
  7518  17DB  2FDD               	goto	u4755
  7519  17DC  2FDE               	goto	u4756
  7520  17DD                     u4755:
  7521  17DD  02D7               	subwf	??___flge+3,f
  7522  17DE                     u4756:
  7523  17DE  0857               	movf	??___flge+3,w
  7524  17DF  00D3               	movwf	___flge@ff2+3
  7525  17E0  0856               	movf	??___flge+2,w
  7526  17E1  00D2               	movwf	___flge@ff2+2
  7527  17E2  0855               	movf	??___flge+1,w
  7528  17E3  00D1               	movwf	___flge@ff2+1
  7529  17E4  0854               	movf	??___flge,w
  7530  17E5  00D0               	movwf	___flge@ff2
  7531  17E6                     l576:
  7532  17E6  3080               	movlw	128
  7533  17E7  06CF               	xorwf	___flge@ff1+3,f
  7534  17E8  3080               	movlw	128
  7535  17E9  06D3               	xorwf	___flge@ff2+3,f
  7536  17EA  0853               	movf	___flge@ff2+3,w
  7537  17EB  024F               	subwf	___flge@ff1+3,w
  7538  17EC  1D03               	skipz
  7539  17ED  2FF8               	goto	u4765
  7540  17EE  0852               	movf	___flge@ff2+2,w
  7541  17EF  024E               	subwf	___flge@ff1+2,w
  7542  17F0  1D03               	skipz
  7543  17F1  2FF8               	goto	u4765
  7544  17F2  0851               	movf	___flge@ff2+1,w
  7545  17F3  024D               	subwf	___flge@ff1+1,w
  7546  17F4  1D03               	skipz
  7547  17F5  2FF8               	goto	u4765
  7548  17F6  0850               	movf	___flge@ff2,w
  7549  17F7  024C               	subwf	___flge@ff1,w
  7550  17F8                     u4765:
  7551  17F8  1803               	skipnc
  7552  17F9  2FFB               	goto	u4761
  7553  17FA  2FFC               	goto	u4760
  7554  17FB                     u4761:
  7555  17FB  2FFE               	goto	l4067
  7556  17FC                     u4760:
  7557  17FC                     l4065:
  7558  17FC  1003               	clrc
  7559  17FD  2FFF               	goto	l577
  7560  17FE                     l4067:
  7561  17FE  1403               	setc
  7562  17FF                     l577:
  7563  17FF  0008               	return
  7564  1800                     __end_of___flge:
  7565                           
  7566                           	psect	text15
  7567  1524                     __ptext15:	
  7568 ;; *************** function ___awmod *****************
  7569 ;; Defined at:
  7570 ;;		line 5 in file "C:\Program Files\Microchip\xc8\v2.32\pic\sources\c90\common\awmod.c"
  7571 ;; Parameters:    Size  Location     Type
  7572 ;;  divisor         2    3[COMMON] int 
  7573 ;;  dividend        2    5[COMMON] int 
  7574 ;; Auto vars:     Size  Location     Type
  7575 ;;  sign            1    1[BANK0 ] unsigned char 
  7576 ;;  counter         1    0[BANK0 ] unsigned char 
  7577 ;; Return value:  Size  Location     Type
  7578 ;;                  2    3[COMMON] int 
  7579 ;; Registers used:
  7580 ;;		wreg, status,2, status,0
  7581 ;; Tracked objects:
  7582 ;;		On entry : 0/0
  7583 ;;		On exit  : 0/0
  7584 ;;		Unchanged: 0/0
  7585 ;; Data sizes:     COMMON   BANK0   BANK1   BANK3   BANK2
  7586 ;;      Params:         4       0       0       0       0
  7587 ;;      Locals:         0       2       0       0       0
  7588 ;;      Temps:          1       0       0       0       0
  7589 ;;      Totals:         5       2       0       0       0
  7590 ;;Total ram usage:        7 bytes
  7591 ;; Hardware stack levels used: 1
  7592 ;; Hardware stack levels required when called: 1
  7593 ;; This function calls:
  7594 ;;		Nothing
  7595 ;; This function is called by:
  7596 ;;		_run_program
  7597 ;; This function uses a non-reentrant model
  7598 ;;
  7599                           
  7600                           
  7601                           ;psect for function ___awmod
  7602  1524                     ___awmod:
  7603  1524                     l4013:	
  7604                           ;incstack = 0
  7605                           ; Regs used in ___awmod: [wreg+status,2+status,0]
  7606                           
  7607  1524  1283               	bcf	3,5	;RP0=0, select bank0
  7608  1525  1303               	bcf	3,6	;RP1=0, select bank0
  7609  1526  01A1               	clrf	___awmod@sign
  7610  1527                     l4015:
  7611  1527  1FF6               	btfss	___awmod@dividend+1,7
  7612  1528  2D2A               	goto	u4611
  7613  1529  2D2B               	goto	u4610
  7614  152A                     u4611:
  7615  152A  2D32               	goto	l4021
  7616  152B                     u4610:
  7617  152B                     l4017:
  7618  152B  09F5               	comf	___awmod@dividend,f
  7619  152C  09F6               	comf	___awmod@dividend+1,f
  7620  152D  0AF5               	incf	___awmod@dividend,f
  7621  152E  1903               	skipnz
  7622  152F  0AF6               	incf	___awmod@dividend+1,f
  7623  1530                     l4019:
  7624  1530  01A1               	clrf	___awmod@sign
  7625  1531  0AA1               	incf	___awmod@sign,f
  7626  1532                     l4021:
  7627  1532  1FF4               	btfss	___awmod@divisor+1,7
  7628  1533  2D35               	goto	u4621
  7629  1534  2D36               	goto	u4620
  7630  1535                     u4621:
  7631  1535  2D3B               	goto	l4025
  7632  1536                     u4620:
  7633  1536                     l4023:
  7634  1536  09F3               	comf	___awmod@divisor,f
  7635  1537  09F4               	comf	___awmod@divisor+1,f
  7636  1538  0AF3               	incf	___awmod@divisor,f
  7637  1539  1903               	skipnz
  7638  153A  0AF4               	incf	___awmod@divisor+1,f
  7639  153B                     l4025:
  7640  153B  0873               	movf	___awmod@divisor,w
  7641  153C  0474               	iorwf	___awmod@divisor+1,w
  7642  153D  1903               	btfsc	3,2
  7643  153E  2D40               	goto	u4631
  7644  153F  2D41               	goto	u4630
  7645  1540                     u4631:
  7646  1540  2D70               	goto	l4043
  7647  1541                     u4630:
  7648  1541                     l4027:
  7649  1541  01A0               	clrf	___awmod@counter
  7650  1542  0AA0               	incf	___awmod@counter,f
  7651  1543  2D4F               	goto	l4033
  7652  1544                     l4029:
  7653  1544  3001               	movlw	1
  7654  1545                     u4645:
  7655  1545  1003               	clrc
  7656  1546  0DF3               	rlf	___awmod@divisor,f
  7657  1547  0DF4               	rlf	___awmod@divisor+1,f
  7658  1548  3EFF               	addlw	-1
  7659  1549  1D03               	skipz
  7660  154A  2D45               	goto	u4645
  7661  154B                     l4031:
  7662  154B  3001               	movlw	1
  7663  154C  00F7               	movwf	??___awmod
  7664  154D  0877               	movf	??___awmod,w
  7665  154E  07A0               	addwf	___awmod@counter,f
  7666  154F                     l4033:
  7667  154F  1FF4               	btfss	___awmod@divisor+1,7
  7668  1550  2D52               	goto	u4651
  7669  1551  2D53               	goto	u4650
  7670  1552                     u4651:
  7671  1552  2D44               	goto	l4029
  7672  1553                     u4650:
  7673  1553                     l4035:
  7674  1553  0874               	movf	___awmod@divisor+1,w
  7675  1554  0276               	subwf	___awmod@dividend+1,w
  7676  1555  1D03               	skipz
  7677  1556  2D59               	goto	u4665
  7678  1557  0873               	movf	___awmod@divisor,w
  7679  1558  0275               	subwf	___awmod@dividend,w
  7680  1559                     u4665:
  7681  1559  1C03               	skipc
  7682  155A  2D5C               	goto	u4661
  7683  155B  2D5D               	goto	u4660
  7684  155C                     u4661:
  7685  155C  2D63               	goto	l4039
  7686  155D                     u4660:
  7687  155D                     l4037:
  7688  155D  0873               	movf	___awmod@divisor,w
  7689  155E  02F5               	subwf	___awmod@dividend,f
  7690  155F  0874               	movf	___awmod@divisor+1,w
  7691  1560  1C03               	skipc
  7692  1561  03F6               	decf	___awmod@dividend+1,f
  7693  1562  02F6               	subwf	___awmod@dividend+1,f
  7694  1563                     l4039:
  7695  1563  3001               	movlw	1
  7696  1564                     u4675:
  7697  1564  1003               	clrc
  7698  1565  0CF4               	rrf	___awmod@divisor+1,f
  7699  1566  0CF3               	rrf	___awmod@divisor,f
  7700  1567  3EFF               	addlw	-1
  7701  1568  1D03               	skipz
  7702  1569  2D64               	goto	u4675
  7703  156A                     l4041:
  7704  156A  3001               	movlw	1
  7705  156B  02A0               	subwf	___awmod@counter,f
  7706  156C  1D03               	btfss	3,2
  7707  156D  2D6F               	goto	u4681
  7708  156E  2D70               	goto	u4680
  7709  156F                     u4681:
  7710  156F  2D53               	goto	l4035
  7711  1570                     u4680:
  7712  1570                     l4043:
  7713  1570  0821               	movf	___awmod@sign,w
  7714  1571  1903               	btfsc	3,2
  7715  1572  2D74               	goto	u4691
  7716  1573  2D75               	goto	u4690
  7717  1574                     u4691:
  7718  1574  2D7A               	goto	l4047
  7719  1575                     u4690:
  7720  1575                     l4045:
  7721  1575  09F5               	comf	___awmod@dividend,f
  7722  1576  09F6               	comf	___awmod@dividend+1,f
  7723  1577  0AF5               	incf	___awmod@dividend,f
  7724  1578  1903               	skipnz
  7725  1579  0AF6               	incf	___awmod@dividend+1,f
  7726  157A                     l4047:
  7727  157A  0876               	movf	___awmod@dividend+1,w
  7728  157B  00F4               	movwf	?___awmod+1
  7729  157C  0875               	movf	___awmod@dividend,w
  7730  157D  00F3               	movwf	?___awmod
  7731  157E                     l565:
  7732  157E  0008               	return
  7733  157F                     __end_of___awmod:
  7734                           
  7735                           	psect	text16
  7736  15E7                     __ptext16:	
  7737 ;; *************** function ___awdiv *****************
  7738 ;; Defined at:
  7739 ;;		line 5 in file "C:\Program Files\Microchip\xc8\v2.32\pic\sources\c90\common\awdiv.c"
  7740 ;; Parameters:    Size  Location     Type
  7741 ;;  divisor         2    3[COMMON] int 
  7742 ;;  dividend        2    5[COMMON] int 
  7743 ;; Auto vars:     Size  Location     Type
  7744 ;;  quotient        2    2[BANK0 ] int 
  7745 ;;  sign            1    1[BANK0 ] unsigned char 
  7746 ;;  counter         1    0[BANK0 ] unsigned char 
  7747 ;; Return value:  Size  Location     Type
  7748 ;;                  2    3[COMMON] int 
  7749 ;; Registers used:
  7750 ;;		wreg, status,2, status,0
  7751 ;; Tracked objects:
  7752 ;;		On entry : 0/0
  7753 ;;		On exit  : 0/0
  7754 ;;		Unchanged: 0/0
  7755 ;; Data sizes:     COMMON   BANK0   BANK1   BANK3   BANK2
  7756 ;;      Params:         4       0       0       0       0
  7757 ;;      Locals:         0       4       0       0       0
  7758 ;;      Temps:          1       0       0       0       0
  7759 ;;      Totals:         5       4       0       0       0
  7760 ;;Total ram usage:        9 bytes
  7761 ;; Hardware stack levels used: 1
  7762 ;; Hardware stack levels required when called: 1
  7763 ;; This function calls:
  7764 ;;		Nothing
  7765 ;; This function is called by:
  7766 ;;		_run_program
  7767 ;; This function uses a non-reentrant model
  7768 ;;
  7769                           
  7770                           
  7771                           ;psect for function ___awdiv
  7772  15E7                     ___awdiv:
  7773  15E7                     l3969:	
  7774                           ;incstack = 0
  7775                           ; Regs used in ___awdiv: [wreg+status,2+status,0]
  7776                           
  7777  15E7  1283               	bcf	3,5	;RP0=0, select bank0
  7778  15E8  1303               	bcf	3,6	;RP1=0, select bank0
  7779  15E9  01A1               	clrf	___awdiv@sign
  7780  15EA                     l3971:
  7781  15EA  1FF4               	btfss	___awdiv@divisor+1,7
  7782  15EB  2DED               	goto	u4511
  7783  15EC  2DEE               	goto	u4510
  7784  15ED                     u4511:
  7785  15ED  2DF5               	goto	l3977
  7786  15EE                     u4510:
  7787  15EE                     l3973:
  7788  15EE  09F3               	comf	___awdiv@divisor,f
  7789  15EF  09F4               	comf	___awdiv@divisor+1,f
  7790  15F0  0AF3               	incf	___awdiv@divisor,f
  7791  15F1  1903               	skipnz
  7792  15F2  0AF4               	incf	___awdiv@divisor+1,f
  7793  15F3                     l3975:
  7794  15F3  01A1               	clrf	___awdiv@sign
  7795  15F4  0AA1               	incf	___awdiv@sign,f
  7796  15F5                     l3977:
  7797  15F5  1FF6               	btfss	___awdiv@dividend+1,7
  7798  15F6  2DF8               	goto	u4521
  7799  15F7  2DF9               	goto	u4520
  7800  15F8                     u4521:
  7801  15F8  2E02               	goto	l3983
  7802  15F9                     u4520:
  7803  15F9                     l3979:
  7804  15F9  09F5               	comf	___awdiv@dividend,f
  7805  15FA  09F6               	comf	___awdiv@dividend+1,f
  7806  15FB  0AF5               	incf	___awdiv@dividend,f
  7807  15FC  1903               	skipnz
  7808  15FD  0AF6               	incf	___awdiv@dividend+1,f
  7809  15FE                     l3981:
  7810  15FE  3001               	movlw	1
  7811  15FF  00F7               	movwf	??___awdiv
  7812  1600  0877               	movf	??___awdiv,w
  7813  1601  06A1               	xorwf	___awdiv@sign,f
  7814  1602                     l3983:
  7815  1602  01A2               	clrf	___awdiv@quotient
  7816  1603  01A3               	clrf	___awdiv@quotient+1
  7817  1604                     l3985:
  7818  1604  0873               	movf	___awdiv@divisor,w
  7819  1605  0474               	iorwf	___awdiv@divisor+1,w
  7820  1606  1903               	btfsc	3,2
  7821  1607  2E09               	goto	u4531
  7822  1608  2E0A               	goto	u4530
  7823  1609                     u4531:
  7824  1609  2E41               	goto	l4005
  7825  160A                     u4530:
  7826  160A                     l3987:
  7827  160A  01A0               	clrf	___awdiv@counter
  7828  160B  0AA0               	incf	___awdiv@counter,f
  7829  160C  2E18               	goto	l3993
  7830  160D                     l3989:
  7831  160D  3001               	movlw	1
  7832  160E                     u4545:
  7833  160E  1003               	clrc
  7834  160F  0DF3               	rlf	___awdiv@divisor,f
  7835  1610  0DF4               	rlf	___awdiv@divisor+1,f
  7836  1611  3EFF               	addlw	-1
  7837  1612  1D03               	skipz
  7838  1613  2E0E               	goto	u4545
  7839  1614                     l3991:
  7840  1614  3001               	movlw	1
  7841  1615  00F7               	movwf	??___awdiv
  7842  1616  0877               	movf	??___awdiv,w
  7843  1617  07A0               	addwf	___awdiv@counter,f
  7844  1618                     l3993:
  7845  1618  1FF4               	btfss	___awdiv@divisor+1,7
  7846  1619  2E1B               	goto	u4551
  7847  161A  2E1C               	goto	u4550
  7848  161B                     u4551:
  7849  161B  2E0D               	goto	l3989
  7850  161C                     u4550:
  7851  161C                     l3995:
  7852  161C  3001               	movlw	1
  7853  161D                     u4565:
  7854  161D  1003               	clrc
  7855  161E  0DA2               	rlf	___awdiv@quotient,f
  7856  161F  0DA3               	rlf	___awdiv@quotient+1,f
  7857  1620  3EFF               	addlw	-1
  7858  1621  1D03               	skipz
  7859  1622  2E1D               	goto	u4565
  7860  1623  0874               	movf	___awdiv@divisor+1,w
  7861  1624  0276               	subwf	___awdiv@dividend+1,w
  7862  1625  1D03               	skipz
  7863  1626  2E29               	goto	u4575
  7864  1627  0873               	movf	___awdiv@divisor,w
  7865  1628  0275               	subwf	___awdiv@dividend,w
  7866  1629                     u4575:
  7867  1629  1C03               	skipc
  7868  162A  2E2C               	goto	u4571
  7869  162B  2E2D               	goto	u4570
  7870  162C                     u4571:
  7871  162C  2E34               	goto	l4001
  7872  162D                     u4570:
  7873  162D                     l3997:
  7874  162D  0873               	movf	___awdiv@divisor,w
  7875  162E  02F5               	subwf	___awdiv@dividend,f
  7876  162F  0874               	movf	___awdiv@divisor+1,w
  7877  1630  1C03               	skipc
  7878  1631  03F6               	decf	___awdiv@dividend+1,f
  7879  1632  02F6               	subwf	___awdiv@dividend+1,f
  7880  1633                     l3999:
  7881  1633  1422               	bsf	___awdiv@quotient,0
  7882  1634                     l4001:
  7883  1634  3001               	movlw	1
  7884  1635                     u4585:
  7885  1635  1003               	clrc
  7886  1636  0CF4               	rrf	___awdiv@divisor+1,f
  7887  1637  0CF3               	rrf	___awdiv@divisor,f
  7888  1638  3EFF               	addlw	-1
  7889  1639  1D03               	skipz
  7890  163A  2E35               	goto	u4585
  7891  163B                     l4003:
  7892  163B  3001               	movlw	1
  7893  163C  02A0               	subwf	___awdiv@counter,f
  7894  163D  1D03               	btfss	3,2
  7895  163E  2E40               	goto	u4591
  7896  163F  2E41               	goto	u4590
  7897  1640                     u4591:
  7898  1640  2E1C               	goto	l3995
  7899  1641                     u4590:
  7900  1641                     l4005:
  7901  1641  0821               	movf	___awdiv@sign,w
  7902  1642  1903               	btfsc	3,2
  7903  1643  2E45               	goto	u4601
  7904  1644  2E46               	goto	u4600
  7905  1645                     u4601:
  7906  1645  2E4B               	goto	l4009
  7907  1646                     u4600:
  7908  1646                     l4007:
  7909  1646  09A2               	comf	___awdiv@quotient,f
  7910  1647  09A3               	comf	___awdiv@quotient+1,f
  7911  1648  0AA2               	incf	___awdiv@quotient,f
  7912  1649  1903               	skipnz
  7913  164A  0AA3               	incf	___awdiv@quotient+1,f
  7914  164B                     l4009:
  7915  164B  0823               	movf	___awdiv@quotient+1,w
  7916  164C  00F4               	movwf	?___awdiv+1
  7917  164D  0822               	movf	___awdiv@quotient,w
  7918  164E  00F3               	movwf	?___awdiv
  7919  164F                     l552:
  7920  164F  0008               	return
  7921  1650                     __end_of___awdiv:
  7922                           
  7923                           	psect	text17
  7924  079F                     __ptext17:	
  7925 ;; *************** function _read_digital_keypad *****************
  7926 ;; Defined at:
  7927 ;;		line 17 in file "digital_keypad.c"
  7928 ;; Parameters:    Size  Location     Type
  7929 ;;  mode            1    wreg     unsigned char 
  7930 ;; Auto vars:     Size  Location     Type
  7931 ;;  mode            1    4[COMMON] unsigned char 
  7932 ;; Return value:  Size  Location     Type
  7933 ;;                  1    wreg      unsigned char 
  7934 ;; Registers used:
  7935 ;;		wreg, status,2, status,0
  7936 ;; Tracked objects:
  7937 ;;		On entry : 0/0
  7938 ;;		On exit  : 0/0
  7939 ;;		Unchanged: 0/0
  7940 ;; Data sizes:     COMMON   BANK0   BANK1   BANK3   BANK2
  7941 ;;      Params:         0       0       0       0       0
  7942 ;;      Locals:         1       0       0       0       0
  7943 ;;      Temps:          1       0       0       0       0
  7944 ;;      Totals:         2       0       0       0       0
  7945 ;;Total ram usage:        2 bytes
  7946 ;; Hardware stack levels used: 1
  7947 ;; Hardware stack levels required when called: 1
  7948 ;; This function calls:
  7949 ;;		Nothing
  7950 ;; This function is called by:
  7951 ;;		_main
  7952 ;; This function uses a non-reentrant model
  7953 ;;
  7954                           
  7955                           
  7956                           ;psect for function _read_digital_keypad
  7957  079F                     _read_digital_keypad:
  7958                           
  7959                           ;incstack = 0
  7960                           ; Regs used in _read_digital_keypad: [wreg+status,2+status,0]
  7961                           ;read_digital_keypad@mode stored from wreg
  7962  079F  00F4               	movwf	read_digital_keypad@mode
  7963  07A0                     l4307:
  7964                           
  7965                           ;digital_keypad.c: 17:     {;digital_keypad.c: 18:         if (((PORTB & 0x3F) != 0x3F) 
      +                          && once);digital_keypad.c: 19:         {;digital_keypad.c: 20:             once = 0;;dig
      +                          ital_keypad.c: 21:             longpress=0;;digital_keypad.c: 23:         }
  7966  07A0  0874               	movf	read_digital_keypad@mode,w
  7967  07A1  1D03               	btfss	3,2
  7968  07A2  2FA4               	goto	u5381
  7969  07A3  2FA5               	goto	u5380
  7970  07A4                     u5381:
  7971  07A4  2FAA               	goto	l4315
  7972  07A5                     u5380:
  7973  07A5                     l4309:
  7974                           
  7975                           ;digital_keypad.c: 24:         else if (!once && ((PORTB & 0x3F) == pre_key) && longpres
      +                          s<20);digital_keypad.c: 25:         { longpress++;
  7976  07A5  1283               	bcf	3,5	;RP0=0, select bank0
  7977  07A6  1303               	bcf	3,6	;RP1=0, select bank0
  7978  07A7  0806               	movf	6,w	;volatile
  7979  07A8  393F               	andlw	63
  7980  07A9  2FFD               	goto	l274
  7981  07AA                     l4315:
  7982                           
  7983                           ;digital_keypad.c: 28:         { once=1;;digital_keypad.c: 29:             return 0x80| 
      +                          pre_key;
  7984  07AA  303F               	movlw	63
  7985  07AB  1283               	bcf	3,5	;RP0=0, select bank0
  7986  07AC  1303               	bcf	3,6	;RP1=0, select bank0
  7987  07AD  0506               	andwf	6,w	;volatile
  7988  07AE  00F3               	movwf	??_read_digital_keypad
  7989  07AF  303F               	movlw	63
  7990  07B0  0673               	xorwf	??_read_digital_keypad,w
  7991  07B1  1903               	btfsc	3,2
  7992  07B2  2FB4               	goto	u5391
  7993  07B3  2FB5               	goto	u5390
  7994  07B4                     u5391:
  7995  07B4  2FC2               	goto	l4323
  7996  07B5                     u5390:
  7997  07B5                     l4317:
  7998  07B5  086F               	movf	read_digital_keypad@once,w
  7999  07B6  1903               	btfsc	3,2
  8000  07B7  2FB9               	goto	u5401
  8001  07B8  2FBA               	goto	u5400
  8002  07B9                     u5401:
  8003  07B9  2FC2               	goto	l4323
  8004  07BA                     u5400:
  8005  07BA                     l4319:
  8006                           
  8007                           ;digital_keypad.c: 30:         };digital_keypad.c: 31:         else if((PORTB & 0x3F)==0
      +                          x3F && !once)
  8008  07BA  01EF               	clrf	read_digital_keypad@once
  8009                           
  8010                           ;digital_keypad.c: 32:         {
  8011  07BB  01EA               	clrf	read_digital_keypad@longpress
  8012  07BC                     l4321:
  8013                           
  8014                           ;digital_keypad.c: 33:             once=1;
  8015  07BC  0806               	movf	6,w	;volatile
  8016  07BD  393F               	andlw	63
  8017  07BE  00F3               	movwf	??_read_digital_keypad
  8018  07BF  0873               	movf	??_read_digital_keypad,w
  8019  07C0  00EB               	movwf	read_digital_keypad@pre_key
  8020                           
  8021                           ;digital_keypad.c: 34:             if(longpress<30)
  8022  07C1  2FFC               	goto	l4353
  8023  07C2                     l4323:
  8024  07C2  086F               	movf	read_digital_keypad@once,w
  8025  07C3  1D03               	btfss	3,2
  8026  07C4  2FC6               	goto	u5411
  8027  07C5  2FC7               	goto	u5410
  8028  07C6                     u5411:
  8029  07C6  2FD9               	goto	l4331
  8030  07C7                     u5410:
  8031  07C7                     l4325:
  8032  07C7  0806               	movf	6,w	;volatile
  8033  07C8  393F               	andlw	63
  8034  07C9  066B               	xorwf	read_digital_keypad@pre_key,w
  8035  07CA  1D03               	skipz
  8036  07CB  2FCD               	goto	u5421
  8037  07CC  2FCE               	goto	u5420
  8038  07CD                     u5421:
  8039  07CD  2FD9               	goto	l4331
  8040  07CE                     u5420:
  8041  07CE                     l4327:
  8042  07CE  3014               	movlw	20
  8043  07CF  026A               	subwf	read_digital_keypad@longpress,w
  8044  07D0  1803               	skipnc
  8045  07D1  2FD3               	goto	u5431
  8046  07D2  2FD4               	goto	u5430
  8047  07D3                     u5431:
  8048  07D3  2FD9               	goto	l4331
  8049  07D4                     u5430:
  8050  07D4                     l4329:
  8051                           
  8052                           ;digital_keypad.c: 36:                 return pre_key;
  8053  07D4  3001               	movlw	1
  8054  07D5  00F3               	movwf	??_read_digital_keypad
  8055  07D6  0873               	movf	??_read_digital_keypad,w
  8056  07D7  07EA               	addwf	read_digital_keypad@longpress,f
  8057                           
  8058                           ;digital_keypad.c: 37:             }
  8059  07D8  2FFC               	goto	l4353
  8060  07D9                     l4331:
  8061  07D9  3014               	movlw	20
  8062  07DA  026A               	subwf	read_digital_keypad@longpress,w
  8063  07DB  1C03               	skipc
  8064  07DC  2FDE               	goto	u5441
  8065  07DD  2FDF               	goto	u5440
  8066  07DE                     u5441:
  8067  07DE  2FE4               	goto	l4341
  8068  07DF                     u5440:
  8069  07DF                     l4333:
  8070                           
  8071                           ;digital_keypad.c: 39:     }
  8072  07DF  01EF               	clrf	read_digital_keypad@once
  8073  07E0  0AEF               	incf	read_digital_keypad@once,f
  8074  07E1                     l4335:
  8075                           
  8076                           ;digital_keypad.c: 40: 
  8077  07E1  086B               	movf	read_digital_keypad@pre_key,w
  8078  07E2  3880               	iorlw	128
  8079  07E3  2FFD               	goto	l274
  8080  07E4                     l4341:
  8081  07E4  303F               	movlw	63
  8082  07E5  0506               	andwf	6,w	;volatile
  8083  07E6  00F3               	movwf	??_read_digital_keypad
  8084  07E7  303F               	movlw	63
  8085  07E8  0673               	xorwf	??_read_digital_keypad,w
  8086  07E9  1D03               	btfss	3,2
  8087  07EA  2FEC               	goto	u5451
  8088  07EB  2FED               	goto	u5450
  8089  07EC                     u5451:
  8090  07EC  2FFC               	goto	l4353
  8091  07ED                     u5450:
  8092  07ED                     l4343:
  8093  07ED  086F               	movf	read_digital_keypad@once,w
  8094  07EE  1D03               	btfss	3,2
  8095  07EF  2FF1               	goto	u5461
  8096  07F0  2FF2               	goto	u5460
  8097  07F1                     u5461:
  8098  07F1  2FFC               	goto	l4353
  8099  07F2                     u5460:
  8100  07F2                     l4345:
  8101  07F2  01EF               	clrf	read_digital_keypad@once
  8102  07F3  0AEF               	incf	read_digital_keypad@once,f
  8103  07F4                     l4347:
  8104  07F4  301E               	movlw	30
  8105  07F5  026A               	subwf	read_digital_keypad@longpress,w
  8106  07F6  1803               	skipnc
  8107  07F7  2FF9               	goto	u5471
  8108  07F8  2FFA               	goto	u5470
  8109  07F9                     u5471:
  8110  07F9  2FFC               	goto	l279
  8111  07FA                     u5470:
  8112  07FA                     l4349:
  8113  07FA  086B               	movf	read_digital_keypad@pre_key,w
  8114  07FB  2FFD               	goto	l274
  8115  07FC                     l279:
  8116  07FC                     l4353:
  8117  07FC  303F               	movlw	63
  8118  07FD                     l274:
  8119  07FD  0008               	return
  8120  07FE                     __end_of_read_digital_keypad:
  8121                           
  8122                           	psect	text18
  8123  16CC                     __ptext18:	
  8124 ;; *************** function _power_on *****************
  8125 ;; Defined at:
  8126 ;;		line 127 in file "main.c"
  8127 ;; Parameters:    Size  Location     Type
  8128 ;;		None
  8129 ;; Auto vars:     Size  Location     Type
  8130 ;;  i               1    9[BANK0 ] unsigned char 
  8131 ;; Return value:  Size  Location     Type
  8132 ;;                  1    wreg      void 
  8133 ;; Registers used:
  8134 ;;		wreg, fsr0l, fsr0h, status,2, status,0, btemp+1, pclath, cstack
  8135 ;; Tracked objects:
  8136 ;;		On entry : 0/0
  8137 ;;		On exit  : 0/0
  8138 ;;		Unchanged: 0/0
  8139 ;; Data sizes:     COMMON   BANK0   BANK1   BANK3   BANK2
  8140 ;;      Params:         0       0       0       0       0
  8141 ;;      Locals:         0       1       0       0       0
  8142 ;;      Temps:          0       3       0       0       0
  8143 ;;      Totals:         0       4       0       0       0
  8144 ;;Total ram usage:        4 bytes
  8145 ;; Hardware stack levels used: 1
  8146 ;; Hardware stack levels required when called: 3
  8147 ;; This function calls:
  8148 ;;		_clcd_print
  8149 ;;		_clcd_putch
  8150 ;;		_clear_scr
  8151 ;; This function is called by:
  8152 ;;		_main
  8153 ;; This function uses a non-reentrant model
  8154 ;;
  8155                           
  8156                           
  8157                           ;psect for function _power_on
  8158  16CC                     _power_on:
  8159  16CC                     l4357:	
  8160                           ;incstack = 0
  8161                           ; Regs used in _power_on: [wreg-fsr0h+status,2+status,0+btemp+1+pclath+cstack]
  8162                           
  8163                           
  8164                           ;main.c: 129:     clcd_print("     LOOP",(0xC0 + 0));
  8165  16CC  1283               	bcf	3,5	;RP0=0, select bank0
  8166  16CD  1303               	bcf	3,6	;RP1=0, select bank0
  8167  16CE  01A9               	clrf	power_on@i
  8168  16CF                     l4363:
  8169                           
  8170                           ;main.c: 130:     clcd_print("    Company ",(0x90 + 0));
  8171  16CF  0829               	movf	power_on@i,w
  8172  16D0  3E80               	addlw	128
  8173  16D1  00A6               	movwf	??_power_on
  8174  16D2  0826               	movf	??_power_on,w
  8175  16D3  00A4               	movwf	clcd_putch@addr
  8176  16D4  30FF               	movlw	255
  8177  16D5  120A  158A  2000  160A  118A  	fcall	_clcd_putch
  8178  16DA                     l4365:
  8179                           
  8180                           ;main.c: 131:    _delay((unsigned long)((2000)*(20000000/4000.0)));
  8181  16DA  3001               	movlw	1
  8182  16DB  1283               	bcf	3,5	;RP0=0, select bank0
  8183  16DC  1303               	bcf	3,6	;RP1=0, select bank0
  8184  16DD  00A6               	movwf	??_power_on
  8185  16DE  0826               	movf	??_power_on,w
  8186  16DF  07A9               	addwf	power_on@i,f
  8187  16E0                     l4367:
  8188  16E0  3010               	movlw	16
  8189  16E1  0229               	subwf	power_on@i,w
  8190  16E2  1C03               	skipc
  8191  16E3  2EE5               	goto	u5481
  8192  16E4  2EE6               	goto	u5480
  8193  16E5                     u5481:
  8194  16E5  2ECF               	goto	l4363
  8195  16E6                     u5480:
  8196  16E6                     l4369:
  8197                           
  8198                           ;main.c: 132: }
  8199  16E6  3099               	movlw	low (STR_21| (0+32768))
  8200  16E7  00A0               	movwf	clcd_print@str
  8201  16E8  3090               	movlw	high (STR_21| (0+32768))
  8202  16E9  00A1               	movwf	clcd_print@str+1
  8203  16EA  30C0               	movlw	192
  8204  16EB  00A6               	movwf	??_power_on
  8205  16EC  0826               	movf	??_power_on,w
  8206  16ED  00A2               	movwf	clcd_print@addr
  8207  16EE  160A  118A  240B  160A  118A  	fcall	_clcd_print
  8208                           
  8209                           ;main.c: 133: 
  8210  16F3  3033               	movlw	low (STR_22| (0+32768))
  8211  16F4  1283               	bcf	3,5	;RP0=0, select bank0
  8212  16F5  1303               	bcf	3,6	;RP1=0, select bank0
  8213  16F6  00A0               	movwf	clcd_print@str
  8214  16F7  3090               	movlw	high (STR_22| (0+32768))
  8215  16F8  00A1               	movwf	clcd_print@str+1
  8216  16F9  3090               	movlw	144
  8217  16FA  00A6               	movwf	??_power_on
  8218  16FB  0826               	movf	??_power_on,w
  8219  16FC  00A2               	movwf	clcd_print@addr
  8220  16FD  160A  118A  240B  160A  118A  	fcall	_clcd_print
  8221  1702                     l4371:
  8222                           
  8223                           ;main.c: 134: 
  8224  1702  1283               	bcf	3,5	;RP0=0, select bank0
  8225  1703  1303               	bcf	3,6	;RP1=0, select bank0
  8226  1704  01A9               	clrf	power_on@i
  8227  1705                     l4377:
  8228                           
  8229                           ;main.c: 135: 
  8230  1705  0829               	movf	power_on@i,w
  8231  1706  3ED0               	addlw	208
  8232  1707  00A6               	movwf	??_power_on
  8233  1708  0826               	movf	??_power_on,w
  8234  1709  00A4               	movwf	clcd_putch@addr
  8235  170A  30FF               	movlw	255
  8236  170B  120A  158A  2000  160A  118A  	fcall	_clcd_putch
  8237  1710                     l4379:
  8238                           
  8239                           ;main.c: 136: 
  8240  1710  3001               	movlw	1
  8241  1711  1283               	bcf	3,5	;RP0=0, select bank0
  8242  1712  1303               	bcf	3,6	;RP1=0, select bank0
  8243  1713  00A6               	movwf	??_power_on
  8244  1714  0826               	movf	??_power_on,w
  8245  1715  07A9               	addwf	power_on@i,f
  8246  1716                     l4381:
  8247  1716  3010               	movlw	16
  8248  1717  0229               	subwf	power_on@i,w
  8249  1718  1C03               	skipc
  8250  1719  2F1B               	goto	u5491
  8251  171A  2F1C               	goto	u5490
  8252  171B                     u5491:
  8253  171B  2F05               	goto	l4377
  8254  171C                     u5490:
  8255  171C                     l4383:
  8256                           
  8257                           ;main.c: 137: unsigned char start_stop_display(unsigned char key)
  8258  171C  3033               	movlw	51
  8259  171D  1283               	bcf	3,5	;RP0=0, select bank0
  8260  171E  1303               	bcf	3,6	;RP1=0, select bank0
  8261  171F  00A8               	movwf	??_power_on+2
  8262  1720  30BB               	movlw	187
  8263  1721  00A7               	movwf	??_power_on+1
  8264  1722  30DF               	movlw	223
  8265  1723  00A6               	movwf	??_power_on
  8266  1724                     u5867:
  8267  1724  0BA6               	decfsz	??_power_on,f
  8268  1725  2F24               	goto	u5867
  8269  1726  0BA7               	decfsz	??_power_on+1,f
  8270  1727  2F24               	goto	u5867
  8271  1728  0BA8               	decfsz	??_power_on+2,f
  8272  1729  2F24               	goto	u5867
  8273  172A                     l4385:
  8274                           
  8275                           ;main.c: 139:   { clear_scr();}
  8276  172A  160A  118A  231B  160A  118A  	fcall	_clear_scr
  8277  172F                     l4387:
  8278                           
  8279                           ;main.c: 141:   clcd_print("Press Switch:",(0x80 + 0));
  8280  172F  30FC               	movlw	low (STR_23| (0+32768))
  8281  1730  1283               	bcf	3,5	;RP0=0, select bank0
  8282  1731  1303               	bcf	3,6	;RP1=0, select bank0
  8283  1732  00A0               	movwf	clcd_print@str
  8284  1733  3090               	movlw	high (STR_23| (0+32768))
  8285  1734  00A1               	movwf	clcd_print@str+1
  8286  1735  30C0               	movlw	192
  8287  1736  00A6               	movwf	??_power_on
  8288  1737  0826               	movf	??_power_on,w
  8289  1738  00A2               	movwf	clcd_print@addr
  8290  1739  160A  118A  240B  160A  118A  	fcall	_clcd_print
  8291  173E                     l4389:
  8292                           
  8293                           ;main.c: 142:   clcd_print(" SW5:START",(0xC0 + 0));
  8294  173E  30B4               	movlw	low (STR_24| (0+32768))
  8295  173F  1283               	bcf	3,5	;RP0=0, select bank0
  8296  1740  1303               	bcf	3,6	;RP1=0, select bank0
  8297  1741  00A0               	movwf	clcd_print@str
  8298  1742  3090               	movlw	high (STR_24| (0+32768))
  8299  1743  00A1               	movwf	clcd_print@str+1
  8300  1744  3090               	movlw	144
  8301  1745  00A6               	movwf	??_power_on
  8302  1746  0826               	movf	??_power_on,w
  8303  1747  00A2               	movwf	clcd_print@addr
  8304  1748  160A  118A  240B  160A  118A  	fcall	_clcd_print
  8305  174D                     l4391:
  8306                           
  8307                           ;main.c: 143:   clcd_print(" SW6:STOP",(0x90 + 0));
  8308  174D  3033               	movlw	51
  8309  174E  1283               	bcf	3,5	;RP0=0, select bank0
  8310  174F  1303               	bcf	3,6	;RP1=0, select bank0
  8311  1750  00A8               	movwf	??_power_on+2
  8312  1751  30BB               	movlw	187
  8313  1752  00A7               	movwf	??_power_on+1
  8314  1753  30DF               	movlw	223
  8315  1754  00A6               	movwf	??_power_on
  8316  1755                     u5877:
  8317  1755  0BA6               	decfsz	??_power_on,f
  8318  1756  2F55               	goto	u5877
  8319  1757  0BA7               	decfsz	??_power_on+1,f
  8320  1758  2F55               	goto	u5877
  8321  1759  0BA8               	decfsz	??_power_on+2,f
  8322  175A  2F55               	goto	u5877
  8323  175B                     l110:
  8324  175B  0008               	return
  8325  175C                     __end_of_power_on:
  8326                           
  8327                           	psect	text19
  8328  131B                     __ptext19:	
  8329 ;; *************** function _clear_scr *****************
  8330 ;; Defined at:
  8331 ;;		line 119 in file "main.c"
  8332 ;; Parameters:    Size  Location     Type
  8333 ;;		None
  8334 ;; Auto vars:     Size  Location     Type
  8335 ;;		None
  8336 ;; Return value:  Size  Location     Type
  8337 ;;                  1    wreg      void 
  8338 ;; Registers used:
  8339 ;;		wreg, status,2, status,0, pclath, cstack
  8340 ;; Tracked objects:
  8341 ;;		On entry : 0/0
  8342 ;;		On exit  : 0/0
  8343 ;;		Unchanged: 0/0
  8344 ;; Data sizes:     COMMON   BANK0   BANK1   BANK3   BANK2
  8345 ;;      Params:         0       0       0       0       0
  8346 ;;      Locals:         0       0       0       0       0
  8347 ;;      Temps:          1       0       0       0       0
  8348 ;;      Totals:         1       0       0       0       0
  8349 ;;Total ram usage:        1 bytes
  8350 ;; Hardware stack levels used: 1
  8351 ;; Hardware stack levels required when called: 2
  8352 ;; This function calls:
  8353 ;;		_clcd_write
  8354 ;; This function is called by:
  8355 ;;		_main
  8356 ;;		_power_on
  8357 ;;		_start_stop_display
  8358 ;;		_wash_level_display
  8359 ;;		_washing_program_display
  8360 ;;		_door_open
  8361 ;;		_run_program
  8362 ;; This function uses a non-reentrant model
  8363 ;;
  8364                           
  8365                           
  8366                           ;psect for function _clear_scr
  8367  131B                     _clear_scr:
  8368  131B                     l3557:	
  8369                           ;incstack = 0
  8370                           ; Regs used in _clear_scr: [wreg+status,2+status,0+pclath+cstack]
  8371                           
  8372                           
  8373                           ;main.c: 121:     clcd_print("Washing Machine",(0x90 + 0));
  8374  131B  01F3               	clrf	clcd_write@mode
  8375  131C  3001               	movlw	1
  8376  131D  160A  118A  2351  160A  118A  	fcall	_clcd_write
  8377  1322                     l3559:
  8378                           
  8379                           ;main.c: 122:     for(i=0;i<16;i++)
  8380  1322  30A6               	movlw	166
  8381  1323  00F7               	movwf	??_clear_scr
  8382  1324                     u5887:
  8383  1324  0BF7               	decfsz	??_clear_scr,f
  8384  1325  2B24               	goto	u5887
  8385  1326  0000               	nop
  8386  1327                     l103:
  8387  1327  0008               	return
  8388  1328                     __end_of_clear_scr:
  8389                           
  8390                           	psect	text20
  8391  0800                     __ptext20:	
  8392 ;; *************** function _clcd_putch *****************
  8393 ;; Defined at:
  8394 ;;		line 53 in file "clcd.c"
  8395 ;; Parameters:    Size  Location     Type
  8396 ;;  data            1    wreg     const unsigned char 
  8397 ;;  addr            1    4[BANK0 ] unsigned char 
  8398 ;; Auto vars:     Size  Location     Type
  8399 ;;  data            1    5[BANK0 ] const unsigned char 
  8400 ;; Return value:  Size  Location     Type
  8401 ;;                  1    wreg      void 
  8402 ;; Registers used:
  8403 ;;		wreg, status,2, status,0, pclath, cstack
  8404 ;; Tracked objects:
  8405 ;;		On entry : 0/0
  8406 ;;		On exit  : 0/0
  8407 ;;		Unchanged: 0/0
  8408 ;; Data sizes:     COMMON   BANK0   BANK1   BANK3   BANK2
  8409 ;;      Params:         0       1       0       0       0
  8410 ;;      Locals:         0       1       0       0       0
  8411 ;;      Temps:          0       0       0       0       0
  8412 ;;      Totals:         0       2       0       0       0
  8413 ;;Total ram usage:        2 bytes
  8414 ;; Hardware stack levels used: 1
  8415 ;; Hardware stack levels required when called: 2
  8416 ;; This function calls:
  8417 ;;		_clcd_write
  8418 ;; This function is called by:
  8419 ;;		_power_on
  8420 ;;		_wash_level_display
  8421 ;;		_washing_program_display
  8422 ;;		_run_program
  8423 ;; This function uses a non-reentrant model
  8424 ;;
  8425                           
  8426                           
  8427                           ;psect for function _clcd_putch
  8428  0800                     _clcd_putch:
  8429                           
  8430                           ;incstack = 0
  8431                           ; Regs used in _clcd_putch: [wreg+status,2+status,0+pclath+cstack]
  8432                           ;clcd_putch@data stored from wreg
  8433  0800  1283               	bcf	3,5	;RP0=0, select bank0
  8434  0801  1303               	bcf	3,6	;RP1=0, select bank0
  8435  0802  00A5               	movwf	clcd_putch@data
  8436  0803                     l3805:
  8437                           
  8438                           ;clcd.c: 53:     {;clcd.c: 54:         clcd_write(*str, 1);;clcd.c: 55:         str++;
  8439  0803  01F3               	clrf	clcd_write@mode
  8440  0804  0824               	movf	clcd_putch@addr,w
  8441  0805  160A  118A  2351  120A  158A  	fcall	_clcd_write
  8442                           
  8443                           ;clcd.c: 56:     }
  8444  080A  01F3               	clrf	clcd_write@mode
  8445  080B  0AF3               	incf	clcd_write@mode,f
  8446  080C  1283               	bcf	3,5	;RP0=0, select bank0
  8447  080D  1303               	bcf	3,6	;RP1=0, select bank0
  8448  080E  0825               	movf	clcd_putch@data,w
  8449  080F  160A  118A  2351  120A  158A  	fcall	_clcd_write
  8450  0814                     l251:
  8451  0814  0008               	return
  8452  0815                     __end_of_clcd_putch:
  8453                           
  8454                           	psect	text21
  8455  140B                     __ptext21:	
  8456 ;; *************** function _clcd_print *****************
  8457 ;; Defined at:
  8458 ;;		line 59 in file "clcd.c"
  8459 ;; Parameters:    Size  Location     Type
  8460 ;;  str             2    0[BANK0 ] PTR const unsigned char 
  8461 ;;		 -> STR_49(15), STR_48(14), STR_47(5), STR_46(7), 
  8462 ;;		 -> STR_45(6), STR_44(6), STR_43(6), STR_42(6), 
  8463 ;;		 -> STR_41(5), STR_40(17), STR_39(9), STR_38(13), 
  8464 ;;		 -> STR_37(8), STR_36(6), STR_35(6), STR_34(17), 
  8465 ;;		 -> STR_33(9), STR_32(12), STR_31(14), STR_30(13), 
  8466 ;;		 -> STR_29(17), STR_28(12), STR_27(10), STR_26(11), 
  8467 ;;		 -> STR_25(14), STR_24(13), STR_23(10), STR_22(16), 
  8468 ;;		 -> STR_21(14), STR_20(17), STR_19(14), STR_18(15), 
  8469 ;;		 -> STR_17(10), STR_16(5), STR_15(7), STR_14(4), 
  8470 ;;		 -> STR_13(5), STR_12(11), STR_11(10), STR_10(9), 
  8471 ;;		 -> STR_9(10), STR_8(10), STR_7(8), STR_6(10), 
  8472 ;;		 -> STR_5(10), STR_4(6), STR_3(9), STR_2(6), 
  8473 ;;		 -> STR_1(6), 
  8474 ;;  addr            1    2[BANK0 ] unsigned char 
  8475 ;; Auto vars:     Size  Location     Type
  8476 ;;		None
  8477 ;; Return value:  Size  Location     Type
  8478 ;;                  1    wreg      void 
  8479 ;; Registers used:
  8480 ;;		wreg, fsr0l, fsr0h, status,2, status,0, btemp+1, pclath, cstack
  8481 ;; Tracked objects:
  8482 ;;		On entry : 0/0
  8483 ;;		On exit  : 0/0
  8484 ;;		Unchanged: 0/0
  8485 ;; Data sizes:     COMMON   BANK0   BANK1   BANK3   BANK2
  8486 ;;      Params:         0       3       0       0       0
  8487 ;;      Locals:         0       0       0       0       0
  8488 ;;      Temps:          0       0       0       0       0
  8489 ;;      Totals:         0       3       0       0       0
  8490 ;;Total ram usage:        3 bytes
  8491 ;; Hardware stack levels used: 1
  8492 ;; Hardware stack levels required when called: 2
  8493 ;; This function calls:
  8494 ;;		_clcd_write
  8495 ;; This function is called by:
  8496 ;;		_main
  8497 ;;		_power_on
  8498 ;;		_start_stop_display
  8499 ;;		_wash_level_display
  8500 ;;		_washing_program_display
  8501 ;;		_door_open
  8502 ;;		_run_program
  8503 ;; This function uses a non-reentrant model
  8504 ;;
  8505                           
  8506                           
  8507                           ;psect for function _clcd_print
  8508  140B                     _clcd_print:
  8509  140B                     l3549:	
  8510                           ;incstack = 0
  8511                           ; Regs used in _clcd_print: [wreg-fsr0h+status,2+status,0+btemp+1+pclath+cstack]
  8512                           
  8513  140B  01F3               	clrf	clcd_write@mode
  8514  140C  1283               	bcf	3,5	;RP0=0, select bank0
  8515  140D  1303               	bcf	3,6	;RP1=0, select bank0
  8516  140E  0822               	movf	clcd_print@addr,w
  8517  140F  160A  118A  2351  160A  118A  	fcall	_clcd_write
  8518  1414  2C2D               	goto	l3555
  8519  1415                     l3551:
  8520  1415  01F3               	clrf	clcd_write@mode
  8521  1416  0AF3               	incf	clcd_write@mode,f
  8522  1417  0821               	movf	clcd_print@str+1,w
  8523  1418  00FF               	movwf	btemp+1
  8524  1419  0820               	movf	clcd_print@str,w
  8525  141A  0084               	movwf	4
  8526  141B  160A  118A  21C6  160A  118A  	fcall	stringtab
  8527  1420  160A  118A  2351  160A  118A  	fcall	_clcd_write
  8528  1425                     l3553:
  8529  1425  3001               	movlw	1
  8530  1426  1283               	bcf	3,5	;RP0=0, select bank0
  8531  1427  1303               	bcf	3,6	;RP1=0, select bank0
  8532  1428  07A0               	addwf	clcd_print@str,f
  8533  1429  1803               	skipnc
  8534  142A  0AA1               	incf	clcd_print@str+1,f
  8535  142B  3000               	movlw	0
  8536  142C  07A1               	addwf	clcd_print@str+1,f
  8537  142D                     l3555:
  8538  142D  1283               	bcf	3,5	;RP0=0, select bank0
  8539  142E  1303               	bcf	3,6	;RP1=0, select bank0
  8540  142F  0821               	movf	clcd_print@str+1,w
  8541  1430  00FF               	movwf	btemp+1
  8542  1431  0820               	movf	clcd_print@str,w
  8543  1432  0084               	movwf	4
  8544  1433  160A  118A  21C6  160A  118A  	fcall	stringtab
  8545  1438  3A00               	xorlw	0
  8546  1439  1D03               	skipz
  8547  143A  2C3C               	goto	u3951
  8548  143B  2C3D               	goto	u3950
  8549  143C                     u3951:
  8550  143C  2C15               	goto	l3551
  8551  143D                     u3950:
  8552  143D                     l257:
  8553  143D  0008               	return
  8554  143E                     __end_of_clcd_print:
  8555                           
  8556                           	psect	text22
  8557  133B                     __ptext22:	
  8558 ;; *************** function _init_config *****************
  8559 ;; Defined at:
  8560 ;;		line 28 in file "main.c"
  8561 ;; Parameters:    Size  Location     Type
  8562 ;;		None
  8563 ;; Auto vars:     Size  Location     Type
  8564 ;;		None
  8565 ;; Return value:  Size  Location     Type
  8566 ;;                  1    wreg      void 
  8567 ;; Registers used:
  8568 ;;		wreg, status,2, status,0, pclath, cstack
  8569 ;; Tracked objects:
  8570 ;;		On entry : 0/0
  8571 ;;		On exit  : 0/0
  8572 ;;		Unchanged: 0/0
  8573 ;; Data sizes:     COMMON   BANK0   BANK1   BANK3   BANK2
  8574 ;;      Params:         0       0       0       0       0
  8575 ;;      Locals:         0       0       0       0       0
  8576 ;;      Temps:          0       0       0       0       0
  8577 ;;      Totals:         0       0       0       0       0
  8578 ;;Total ram usage:        0 bytes
  8579 ;; Hardware stack levels used: 1
  8580 ;; Hardware stack levels required when called: 4
  8581 ;; This function calls:
  8582 ;;		_init_clcd
  8583 ;;		_init_digital_keypad
  8584 ;;		_init_timer2
  8585 ;; This function is called by:
  8586 ;;		_main
  8587 ;; This function uses a non-reentrant model
  8588 ;;
  8589                           
  8590                           
  8591                           ;psect for function _init_config
  8592  133B                     _init_config:
  8593  133B                     l4297:	
  8594                           ;incstack = 0
  8595                           ; Regs used in _init_config: [wreg+status,2+status,0+pclath+cstack]
  8596                           
  8597                           
  8598                           ;main.c: 30: 
  8599  133B  160A  118A  2303  160A  118A  	fcall	_init_clcd
  8600                           
  8601                           ;main.c: 31: }
  8602  1340  160A  118A  22FD  160A  118A  	fcall	_init_digital_keypad
  8603                           
  8604                           ;main.c: 32: 
  8605  1345  160A  118A  230E  160A  118A  	fcall	_init_timer2
  8606  134A                     l4299:
  8607                           
  8608                           ;main.c: 34: 
  8609  134A  1683               	bsf	3,5	;RP0=1, select bank1
  8610  134B  1303               	bcf	3,6	;RP1=0, select bank1
  8611  134C  1107               	bcf	7,2	;volatile
  8612  134D                     l4301:
  8613                           
  8614                           ;main.c: 36: 
  8615  134D  170B               	bsf	11,6	;volatile
  8616  134E                     l4303:
  8617                           
  8618                           ;main.c: 37: void main(void) {
  8619  134E  178B               	bsf	11,7	;volatile
  8620  134F                     l4305:
  8621                           
  8622                           ;main.c: 39:        unsigned char key;
  8623  134F  1087               	bcf	7,1	;volatile
  8624  1350                     l75:
  8625  1350  0008               	return
  8626  1351                     __end_of_init_config:
  8627                           
  8628                           	psect	text23
  8629  130E                     __ptext23:	
  8630 ;; *************** function _init_timer2 *****************
  8631 ;; Defined at:
  8632 ;;		line 13 in file "timers.c"
  8633 ;; Parameters:    Size  Location     Type
  8634 ;;		None
  8635 ;; Auto vars:     Size  Location     Type
  8636 ;;		None
  8637 ;; Return value:  Size  Location     Type
  8638 ;;                  1    wreg      void 
  8639 ;; Registers used:
  8640 ;;		wreg
  8641 ;; Tracked objects:
  8642 ;;		On entry : 0/0
  8643 ;;		On exit  : 0/0
  8644 ;;		Unchanged: 0/0
  8645 ;; Data sizes:     COMMON   BANK0   BANK1   BANK3   BANK2
  8646 ;;      Params:         0       0       0       0       0
  8647 ;;      Locals:         0       0       0       0       0
  8648 ;;      Temps:          0       0       0       0       0
  8649 ;;      Totals:         0       0       0       0       0
  8650 ;;Total ram usage:        0 bytes
  8651 ;; Hardware stack levels used: 1
  8652 ;; Hardware stack levels required when called: 1
  8653 ;; This function calls:
  8654 ;;		Nothing
  8655 ;; This function is called by:
  8656 ;;		_init_config
  8657 ;; This function uses a non-reentrant model
  8658 ;;
  8659                           
  8660                           
  8661                           ;psect for function _init_timer2
  8662  130E                     _init_timer2:
  8663  130E                     l3797:	
  8664                           ;incstack = 0
  8665                           ; Regs used in _init_timer2: [wreg]
  8666                           
  8667                           
  8668                           ;timers.c: 16:     T2CKPS0 = 1;
  8669  130E  1283               	bcf	3,5	;RP0=0, select bank0
  8670  130F  1303               	bcf	3,6	;RP1=0, select bank0
  8671  1310  1412               	bsf	18,0	;volatile
  8672                           
  8673                           ;timers.c: 17:     T2CKPS1 = 1;
  8674  1311  1492               	bsf	18,1	;volatile
  8675  1312                     l3799:
  8676                           
  8677                           ;timers.c: 20:     PR2 = 250;
  8678  1312  30FA               	movlw	250
  8679  1313  1683               	bsf	3,5	;RP0=1, select bank1
  8680  1314  1303               	bcf	3,6	;RP1=0, select bank1
  8681  1315  0092               	movwf	18	;volatile
  8682  1316                     l3801:
  8683                           
  8684                           ;timers.c: 23:     TMR2IE = 1;
  8685  1316  148C               	bsf	12,1	;volatile
  8686  1317                     l3803:
  8687                           
  8688                           ;timers.c: 26:     TMR2ON = 0;
  8689  1317  1283               	bcf	3,5	;RP0=0, select bank0
  8690  1318  1303               	bcf	3,6	;RP1=0, select bank0
  8691  1319  1112               	bcf	18,2	;volatile
  8692  131A                     l296:
  8693  131A  0008               	return
  8694  131B                     __end_of_init_timer2:
  8695                           
  8696                           	psect	text24
  8697  12FD                     __ptext24:	
  8698 ;; *************** function _init_digital_keypad *****************
  8699 ;; Defined at:
  8700 ;;		line 10 in file "digital_keypad.c"
  8701 ;; Parameters:    Size  Location     Type
  8702 ;;		None
  8703 ;; Auto vars:     Size  Location     Type
  8704 ;;		None
  8705 ;; Return value:  Size  Location     Type
  8706 ;;                  1    wreg      void 
  8707 ;; Registers used:
  8708 ;;		wreg, status,2
  8709 ;; Tracked objects:
  8710 ;;		On entry : 0/0
  8711 ;;		On exit  : 0/0
  8712 ;;		Unchanged: 0/0
  8713 ;; Data sizes:     COMMON   BANK0   BANK1   BANK3   BANK2
  8714 ;;      Params:         0       0       0       0       0
  8715 ;;      Locals:         0       0       0       0       0
  8716 ;;      Temps:          0       0       0       0       0
  8717 ;;      Totals:         0       0       0       0       0
  8718 ;;Total ram usage:        0 bytes
  8719 ;; Hardware stack levels used: 1
  8720 ;; Hardware stack levels required when called: 1
  8721 ;; This function calls:
  8722 ;;		Nothing
  8723 ;; This function is called by:
  8724 ;;		_init_config
  8725 ;; This function uses a non-reentrant model
  8726 ;;
  8727                           
  8728                           
  8729                           ;psect for function _init_digital_keypad
  8730  12FD                     _init_digital_keypad:
  8731  12FD                     l3795:	
  8732                           ;incstack = 0
  8733                           ; Regs used in _init_digital_keypad: [wreg+status,2]
  8734                           
  8735                           
  8736                           ;digital_keypad.c: 13:     {
  8737  12FD  1683               	bsf	3,5	;RP0=1, select bank1
  8738  12FE  1303               	bcf	3,6	;RP1=0, select bank1
  8739  12FF  0806               	movf	6,w	;volatile
  8740  1300  383F               	iorlw	63
  8741  1301  0086               	movwf	6	;volatile
  8742  1302                     l264:
  8743  1302  0008               	return
  8744  1303                     __end_of_init_digital_keypad:
  8745                           
  8746                           	psect	text25
  8747  1303                     __ptext25:	
  8748 ;; *************** function _init_clcd *****************
  8749 ;; Defined at:
  8750 ;;		line 41 in file "clcd.c"
  8751 ;; Parameters:    Size  Location     Type
  8752 ;;		None
  8753 ;; Auto vars:     Size  Location     Type
  8754 ;;		None
  8755 ;; Return value:  Size  Location     Type
  8756 ;;                  1    wreg      void 
  8757 ;; Registers used:
  8758 ;;		wreg, status,2, status,0, pclath, cstack
  8759 ;; Tracked objects:
  8760 ;;		On entry : 0/0
  8761 ;;		On exit  : 0/0
  8762 ;;		Unchanged: 0/0
  8763 ;; Data sizes:     COMMON   BANK0   BANK1   BANK3   BANK2
  8764 ;;      Params:         0       0       0       0       0
  8765 ;;      Locals:         0       0       0       0       0
  8766 ;;      Temps:          0       0       0       0       0
  8767 ;;      Totals:         0       0       0       0       0
  8768 ;;Total ram usage:        0 bytes
  8769 ;; Hardware stack levels used: 1
  8770 ;; Hardware stack levels required when called: 3
  8771 ;; This function calls:
  8772 ;;		_init_display_controller
  8773 ;; This function is called by:
  8774 ;;		_init_config
  8775 ;; This function uses a non-reentrant model
  8776 ;;
  8777                           
  8778                           
  8779                           ;psect for function _init_clcd
  8780  1303                     _init_clcd:
  8781  1303                     l3787:	
  8782                           ;incstack = 0
  8783                           ; Regs used in _init_clcd: [wreg+status,2+status,0+pclath+cstack]
  8784                           
  8785                           
  8786                           ;clcd.c: 44:     clcd_write(addr, 0);
  8787  1303  1683               	bsf	3,5	;RP0=1, select bank1
  8788  1304  1303               	bcf	3,6	;RP1=0, select bank1
  8789  1305  0188               	clrf	8	;volatile
  8790  1306                     l3789:
  8791                           
  8792                           ;clcd.c: 47: 
  8793  1306  1109               	bcf	9,2	;volatile
  8794  1307                     l3791:
  8795                           
  8796                           ;clcd.c: 48: void clcd_print(const char *str, unsigned char addr)
  8797  1307  1089               	bcf	9,1	;volatile
  8798  1308                     l3793:
  8799                           
  8800                           ;clcd.c: 50:     clcd_write(addr, 0);
  8801  1308  160A  118A  2479  160A  118A  	fcall	_init_display_controller
  8802  130D                     l248:
  8803  130D  0008               	return
  8804  130E                     __end_of_init_clcd:
  8805                           
  8806                           	psect	text26
  8807  1479                     __ptext26:	
  8808 ;; *************** function _init_display_controller *****************
  8809 ;; Defined at:
  8810 ;;		line 23 in file "clcd.c"
  8811 ;; Parameters:    Size  Location     Type
  8812 ;;		None
  8813 ;; Auto vars:     Size  Location     Type
  8814 ;;		None
  8815 ;; Return value:  Size  Location     Type
  8816 ;;                  1    wreg      void 
  8817 ;; Registers used:
  8818 ;;		wreg, status,2, status,0, pclath, cstack
  8819 ;; Tracked objects:
  8820 ;;		On entry : 0/0
  8821 ;;		On exit  : 0/0
  8822 ;;		Unchanged: 0/0
  8823 ;; Data sizes:     COMMON   BANK0   BANK1   BANK3   BANK2
  8824 ;;      Params:         0       0       0       0       0
  8825 ;;      Locals:         0       0       0       0       0
  8826 ;;      Temps:          0       2       0       0       0
  8827 ;;      Totals:         0       2       0       0       0
  8828 ;;Total ram usage:        2 bytes
  8829 ;; Hardware stack levels used: 1
  8830 ;; Hardware stack levels required when called: 2
  8831 ;; This function calls:
  8832 ;;		_clcd_write
  8833 ;; This function is called by:
  8834 ;;		_init_clcd
  8835 ;; This function uses a non-reentrant model
  8836 ;;
  8837                           
  8838                           
  8839                           ;psect for function _init_display_controller
  8840  1479                     _init_display_controller:
  8841  1479                     l3561:	
  8842                           ;incstack = 0
  8843                           ; Regs used in _init_display_controller: [wreg+status,2+status,0+pclath+cstack]
  8844                           
  8845                           
  8846                           ;clcd.c: 26:     clcd_write(0x0C, 0);
  8847  1479  30C3               	movlw	195
  8848  147A  1283               	bcf	3,5	;RP0=0, select bank0
  8849  147B  1303               	bcf	3,6	;RP1=0, select bank0
  8850  147C  00A1               	movwf	??_init_display_controller+1
  8851  147D  30CC               	movlw	204
  8852  147E  00A0               	movwf	??_init_display_controller
  8853  147F                     u5897:
  8854  147F  0BA0               	decfsz	??_init_display_controller,f
  8855  1480  2C7F               	goto	u5897
  8856  1481  0BA1               	decfsz	??_init_display_controller+1,f
  8857  1482  2C7F               	goto	u5897
  8858  1483  0000               	nop
  8859  1484                     l3563:
  8860                           
  8861                           ;clcd.c: 29: 
  8862  1484  01F3               	clrf	clcd_write@mode
  8863  1485  3033               	movlw	51
  8864  1486  160A  118A  2351  160A  118A  	fcall	_clcd_write
  8865  148B                     l3565:
  8866                           
  8867                           ;clcd.c: 30: void init_clcd(void)
  8868  148B  301B               	movlw	27
  8869  148C  1283               	bcf	3,5	;RP0=0, select bank0
  8870  148D  1303               	bcf	3,6	;RP1=0, select bank0
  8871  148E  00A1               	movwf	??_init_display_controller+1
  8872  148F  309D               	movlw	157
  8873  1490  00A0               	movwf	??_init_display_controller
  8874  1491                     u5907:
  8875  1491  0BA0               	decfsz	??_init_display_controller,f
  8876  1492  2C91               	goto	u5907
  8877  1493  0BA1               	decfsz	??_init_display_controller+1,f
  8878  1494  2C91               	goto	u5907
  8879  1495  2C96               	nop2
  8880                           
  8881                           ;clcd.c: 31: {
  8882  1496  01F3               	clrf	clcd_write@mode
  8883  1497  3033               	movlw	51
  8884  1498  160A  118A  2351  160A  118A  	fcall	_clcd_write
  8885  149D                     l3567:
  8886                           
  8887                           ;clcd.c: 32: 
  8888  149D  30A5               	movlw	165
  8889  149E  1283               	bcf	3,5	;RP0=0, select bank0
  8890  149F  1303               	bcf	3,6	;RP1=0, select bank0
  8891  14A0  00A0               	movwf	??_init_display_controller
  8892  14A1                     u5917:
  8893  14A1  0BA0               	decfsz	??_init_display_controller,f
  8894  14A2  2CA1               	goto	u5917
  8895  14A3  2CA4               	nop2
  8896  14A4                     l3569:
  8897                           
  8898                           ;clcd.c: 33:     TRISD = 0x00;
  8899  14A4  01F3               	clrf	clcd_write@mode
  8900  14A5  3033               	movlw	51
  8901  14A6  160A  118A  2351  160A  118A  	fcall	_clcd_write
  8902  14AB                     l3571:
  8903                           
  8904                           ;clcd.c: 34: 
  8905  14AB  2CAC               	nop2	;2 cycle nop
  8906  14AC  2CAD               	nop2	;2 cycle nop
  8907  14AD  0000               	nop
  8908  14AE                     l3573:
  8909                           
  8910                           ;clcd.c: 35: 
  8911  14AE  01F3               	clrf	clcd_write@mode
  8912  14AF  3001               	movlw	1
  8913  14B0  160A  118A  2351  160A  118A  	fcall	_clcd_write
  8914  14B5                     l3575:
  8915                           
  8916                           ;clcd.c: 36:     TRISE2 = 0;
  8917  14B5  30A5               	movlw	165
  8918  14B6  1283               	bcf	3,5	;RP0=0, select bank0
  8919  14B7  1303               	bcf	3,6	;RP1=0, select bank0
  8920  14B8  00A0               	movwf	??_init_display_controller
  8921  14B9                     u5927:
  8922  14B9  0BA0               	decfsz	??_init_display_controller,f
  8923  14BA  2CB9               	goto	u5927
  8924  14BB  2CBC               	nop2
  8925                           
  8926                           ;clcd.c: 37:     TRISE1 = 0;
  8927  14BC  01F3               	clrf	clcd_write@mode
  8928  14BD  300C               	movlw	12
  8929  14BE  160A  118A  2351  160A  118A  	fcall	_clcd_write
  8930  14C3                     l3577:
  8931                           
  8932                           ;clcd.c: 38: 
  8933  14C3  30A5               	movlw	165
  8934  14C4  1283               	bcf	3,5	;RP0=0, select bank0
  8935  14C5  1303               	bcf	3,6	;RP1=0, select bank0
  8936  14C6  00A0               	movwf	??_init_display_controller
  8937  14C7                     u5937:
  8938  14C7  0BA0               	decfsz	??_init_display_controller,f
  8939  14C8  2CC7               	goto	u5937
  8940  14C9  2CCA               	nop2
  8941  14CA                     l245:
  8942  14CA  0008               	return
  8943  14CB                     __end_of_init_display_controller:
  8944                           
  8945                           	psect	text27
  8946  1351                     __ptext27:	
  8947 ;; *************** function _clcd_write *****************
  8948 ;; Defined at:
  8949 ;;		line 11 in file "clcd.c"
  8950 ;; Parameters:    Size  Location     Type
  8951 ;;  byte            1    wreg     unsigned char 
  8952 ;;  mode            1    3[COMMON] unsigned char 
  8953 ;; Auto vars:     Size  Location     Type
  8954 ;;  byte            1    6[COMMON] unsigned char 
  8955 ;; Return value:  Size  Location     Type
  8956 ;;                  1    wreg      void 
  8957 ;; Registers used:
  8958 ;;		wreg
  8959 ;; Tracked objects:
  8960 ;;		On entry : 0/0
  8961 ;;		On exit  : 0/0
  8962 ;;		Unchanged: 0/0
  8963 ;; Data sizes:     COMMON   BANK0   BANK1   BANK3   BANK2
  8964 ;;      Params:         1       0       0       0       0
  8965 ;;      Locals:         1       0       0       0       0
  8966 ;;      Temps:          2       0       0       0       0
  8967 ;;      Totals:         4       0       0       0       0
  8968 ;;Total ram usage:        4 bytes
  8969 ;; Hardware stack levels used: 1
  8970 ;; Hardware stack levels required when called: 1
  8971 ;; This function calls:
  8972 ;;		Nothing
  8973 ;; This function is called by:
  8974 ;;		_clear_scr
  8975 ;;		_init_display_controller
  8976 ;;		_clcd_putch
  8977 ;;		_clcd_print
  8978 ;; This function uses a non-reentrant model
  8979 ;;
  8980                           
  8981                           
  8982                           ;psect for function _clcd_write
  8983  1351                     _clcd_write:
  8984                           
  8985                           ;incstack = 0
  8986                           ; Regs used in _clcd_write: [wreg]
  8987                           ;clcd_write@byte stored from wreg
  8988  1351  00F6               	movwf	clcd_write@byte
  8989  1352                     l3541:
  8990                           
  8991                           ;clcd.c: 11: ;clcd.c: 12: static void init_display_controller(void);clcd.c: 13: {
  8992  1352  1873               	btfsc	clcd_write@mode,0
  8993  1353  2B55               	goto	u3931
  8994  1354  2B59               	goto	u3930
  8995  1355                     u3931:
  8996  1355  1283               	bcf	3,5	;RP0=0, select bank0
  8997  1356  1303               	bcf	3,6	;RP1=0, select bank0
  8998  1357  1509               	bsf	9,2	;volatile
  8999  1358  2B5C               	goto	u3944
  9000  1359                     u3930:
  9001  1359  1283               	bcf	3,5	;RP0=0, select bank0
  9002  135A  1303               	bcf	3,6	;RP1=0, select bank0
  9003  135B  1109               	bcf	9,2	;volatile
  9004  135C                     u3944:
  9005  135C                     l3543:
  9006                           
  9007                           ;clcd.c: 14: 
  9008  135C  0876               	movf	clcd_write@byte,w
  9009  135D  0088               	movwf	8	;volatile
  9010  135E                     l3545:
  9011                           
  9012                           ;clcd.c: 16: 
  9013  135E  1489               	bsf	9,1	;volatile
  9014                           
  9015                           ;clcd.c: 17: 
  9016  135F  30A6               	movlw	166
  9017  1360  00F4               	movwf	??_clcd_write
  9018  1361                     u5947:
  9019  1361  0BF4               	decfsz	??_clcd_write,f
  9020  1362  2B61               	goto	u5947
  9021  1363  0000               	nop
  9022  1364                     l3547:
  9023                           
  9024                           ;clcd.c: 18:     clcd_write(0x33, 0);
  9025  1364  1283               	bcf	3,5	;RP0=0, select bank0
  9026  1365  1303               	bcf	3,6	;RP1=0, select bank0
  9027  1366  1089               	bcf	9,1	;volatile
  9028                           
  9029                           ;clcd.c: 20:     clcd_write(0x33, 0);
  9030  1367  301B               	movlw	27
  9031  1368  00F5               	movwf	??_clcd_write+1
  9032  1369  309E               	movlw	158
  9033  136A  00F4               	movwf	??_clcd_write
  9034  136B                     u5957:
  9035  136B  0BF4               	decfsz	??_clcd_write,f
  9036  136C  2B6B               	goto	u5957
  9037  136D  0BF5               	decfsz	??_clcd_write+1,f
  9038  136E  2B6B               	goto	u5957
  9039  136F  0000               	nop
  9040  1370                     l242:
  9041  1370  0008               	return
  9042  1371                     __end_of_clcd_write:
  9043                           
  9044                           	psect	text28
  9045  143E                     __ptext28:	
  9046 ;; *************** function _isr *****************
  9047 ;; Defined at:
  9048 ;;		line 4 in file "isr.c"
  9049 ;; Parameters:    Size  Location     Type
  9050 ;;		None
  9051 ;; Auto vars:     Size  Location     Type
  9052 ;;		None
  9053 ;; Return value:  Size  Location     Type
  9054 ;;                  1    wreg      void 
  9055 ;; Registers used:
  9056 ;;		wreg, status,2, status,0
  9057 ;; Tracked objects:
  9058 ;;		On entry : 0/0
  9059 ;;		On exit  : 0/0
  9060 ;;		Unchanged: 0/0
  9061 ;; Data sizes:     COMMON   BANK0   BANK1   BANK3   BANK2
  9062 ;;      Params:         0       0       0       0       0
  9063 ;;      Locals:         0       0       0       0       0
  9064 ;;      Temps:          3       0       0       0       0
  9065 ;;      Totals:         3       0       0       0       0
  9066 ;;Total ram usage:        3 bytes
  9067 ;; Hardware stack levels used: 1
  9068 ;; This function calls:
  9069 ;;		Nothing
  9070 ;; This function is called by:
  9071 ;;		Interrupt level 1
  9072 ;; This function uses a non-reentrant model
  9073 ;;
  9074                           
  9075                           
  9076                           ;psect for function _isr
  9077  143E                     _isr:
  9078  143E                     i1l3359:
  9079                           
  9080                           ;isr.c: 6:     static unsigned int count = 0;;isr.c: 8:     if (TMR2IF == 1)
  9081  143E  1283               	bcf	3,5	;RP0=0, select bank0
  9082  143F  1303               	bcf	3,6	;RP1=0, select bank0
  9083  1440  1C8C               	btfss	12,1	;volatile
  9084  1441  2C43               	goto	u388_21
  9085  1442  2C44               	goto	u388_20
  9086  1443                     u388_21:
  9087  1443  2C72               	goto	i1l313
  9088  1444                     u388_20:
  9089  1444                     i1l3361:
  9090                           
  9091                           ;isr.c: 9:     {;isr.c: 10:         if (++count == 1250)
  9092  1444  3001               	movlw	1
  9093  1445  1683               	bsf	3,5	;RP0=1, select bank1
  9094  1446  1303               	bcf	3,6	;RP1=0, select bank1
  9095  1447  07C2               	addwf	isr@count^(0+128),f
  9096  1448  1803               	skipnc
  9097  1449  0AC3               	incf	(isr@count+1)^(0+128),f
  9098  144A  3000               	movlw	0
  9099  144B  07C3               	addwf	(isr@count+1)^(0+128),f
  9100  144C  30E2               	movlw	226
  9101  144D  0642               	xorwf	isr@count^(0+128),w
  9102  144E  3004               	movlw	4
  9103  144F  1903               	skipnz
  9104  1450  0643               	xorwf	(isr@count+1)^(0+128),w
  9105  1451  1D03               	btfss	3,2
  9106  1452  2C54               	goto	u389_21
  9107  1453  2C55               	goto	u389_20
  9108  1454                     u389_21:
  9109  1454  2C70               	goto	i1l3375
  9110  1455                     u389_20:
  9111  1455                     i1l3363:
  9112                           
  9113                           ;isr.c: 11:         {;isr.c: 12:             count = 0;
  9114  1455  01C2               	clrf	isr@count^(0+128)
  9115  1456  01C3               	clrf	(isr@count+1)^(0+128)
  9116  1457                     i1l3365:
  9117                           
  9118                           ;isr.c: 13:             if(sec>0)
  9119  1457  0878               	movf	_sec,w
  9120  1458  1903               	btfsc	3,2
  9121  1459  2C5B               	goto	u390_21
  9122  145A  2C5C               	goto	u390_20
  9123  145B                     u390_21:
  9124  145B  2C5E               	goto	i1l311
  9125  145C                     u390_20:
  9126  145C                     i1l3367:
  9127                           
  9128                           ;isr.c: 14:                 sec--;
  9129  145C  3001               	movlw	1
  9130  145D  02F8               	subwf	_sec,f
  9131  145E                     i1l311:
  9132                           
  9133                           ;isr.c: 15:             if(sec==0 && min>0)
  9134  145E  0878               	movf	_sec,w
  9135  145F  1D03               	btfss	3,2
  9136  1460  2C62               	goto	u391_21
  9137  1461  2C63               	goto	u391_20
  9138  1462                     u391_21:
  9139  1462  2C70               	goto	i1l3375
  9140  1463                     u391_20:
  9141  1463                     i1l3369:
  9142  1463  1283               	bcf	3,5	;RP0=0, select bank0
  9143  1464  1303               	bcf	3,6	;RP1=0, select bank0
  9144  1465  086C               	movf	_min,w
  9145  1466  1903               	btfsc	3,2
  9146  1467  2C69               	goto	u392_21
  9147  1468  2C6A               	goto	u392_20
  9148  1469                     u392_21:
  9149  1469  2C70               	goto	i1l3375
  9150  146A                     u392_20:
  9151  146A                     i1l3371:
  9152                           
  9153                           ;isr.c: 16:             {;isr.c: 17:                 min--;
  9154  146A  3001               	movlw	1
  9155  146B  02EC               	subwf	_min,f
  9156  146C                     i1l3373:
  9157                           
  9158                           ;isr.c: 18:                 sec=59;
  9159  146C  303B               	movlw	59
  9160  146D  00F0               	movwf	??_isr
  9161  146E  0870               	movf	??_isr,w
  9162  146F  00F8               	movwf	_sec
  9163  1470                     i1l3375:
  9164                           
  9165                           ;isr.c: 22:         TMR2IF = 0;
  9166  1470  1283               	bcf	3,5	;RP0=0, select bank0
  9167  1471  108C               	bcf	12,1	;volatile
  9168  1472                     i1l313:
  9169  1472  0872               	movf	??_isr+2,w
  9170  1473  008A               	movwf	10
  9171  1474  0E71               	swapf	??_isr+1,w
  9172  1475  0083               	movwf	3
  9173  1476  0EFE               	swapf	btemp,f
  9174  1477  0E7E               	swapf	btemp,w
  9175  1478  0009               	retfie
  9176  1479                     __end_of_isr:
  9177  007E                     btemp	set	126	;btemp
  9178  007E                     wtemp0	set	126
  9179                           
  9180                           	psect	intentry
  9181  0004                     __pintentry:	
  9182                           ;incstack = 0
  9183                           ; Regs used in _isr: [wreg+status,2+status,0]
  9184                           
  9185  0004                     interrupt_function:
  9186  007E                     saved_w	set	btemp
  9187  0004  00FE               	movwf	btemp
  9188  0005  0E03               	swapf	3,w
  9189  0006  00F1               	movwf	??_isr+1
  9190  0007  080A               	movf	10,w
  9191  0008  00F2               	movwf	??_isr+2
  9192  0009  160A  118A  2C3E   	ljmp	_isr
  9193                           
  9194                           	psect	config
  9195                           
  9196                           ;Config register CONFIG @ 0x2007
  9197                           ;	Oscillator Selection bits
  9198                           ;	FOSC = 0x3, unprogrammed default
  9199                           ;	Watchdog Timer Enable bit
  9200                           ;	WDTE = OFF, WDT disabled
  9201                           ;	Power-up Timer Enable bit
  9202                           ;	PWRTE = 0x1, unprogrammed default
  9203                           ;	Brown-out Reset Enable bit
  9204                           ;	BOREN = 0x1, unprogrammed default
  9205                           ;	Low-Voltage (Single-Supply) In-Circuit Serial Programming Enable bit
  9206                           ;	LVP = 0x1, unprogrammed default
  9207                           ;	Data EEPROM Memory Code Protection bit
  9208                           ;	CPD = 0x1, unprogrammed default
  9209                           ;	Flash Program Memory Write Enable bits
  9210                           ;	WRT = 0x3, unprogrammed default
  9211                           ;	In-Circuit Debugger Mode bit
  9212                           ;	DEBUG = 0x1, unprogrammed default
  9213                           ;	Flash Program Memory Code Protection bit
  9214                           ;	CP = 0x1, unprogrammed default
  9215  2007                     	org	8199
  9216  2007  3FFB               	dw	16379

Data Sizes:
    Strings     454
    Constant    0
    Data        35
    BSS         20
    Persistent  0
    Stack       0

Auto Spaces:
    Space          Size  Autos    Used
    COMMON           14      8      11
    BANK0            80     66      80
    BANK1            80      3      41
    BANK3            96      0       0
    BANK2            96      0       0

Pointer List with Targets:

    clcd_print@str	PTR const unsigned char  size(2) Largest target is 17
		 -> STR_49(CODE[15]), STR_48(CODE[14]), STR_47(CODE[5]), STR_46(CODE[7]), 
		 -> STR_45(CODE[6]), STR_44(CODE[6]), STR_43(CODE[6]), STR_42(CODE[6]), 
		 -> STR_41(CODE[5]), STR_40(CODE[17]), STR_39(CODE[9]), STR_38(CODE[13]), 
		 -> STR_37(CODE[8]), STR_36(CODE[6]), STR_35(CODE[6]), STR_34(CODE[17]), 
		 -> STR_33(CODE[9]), STR_32(CODE[12]), STR_31(CODE[14]), STR_30(CODE[13]), 
		 -> STR_29(CODE[17]), STR_28(CODE[12]), STR_27(CODE[10]), STR_26(CODE[11]), 
		 -> STR_25(CODE[14]), STR_24(CODE[13]), STR_23(CODE[10]), STR_22(CODE[16]), 
		 -> STR_21(CODE[14]), STR_20(CODE[17]), STR_19(CODE[14]), STR_18(CODE[15]), 
		 -> STR_17(CODE[10]), STR_16(CODE[5]), STR_15(CODE[7]), STR_14(CODE[4]), 
		 -> STR_13(CODE[5]), STR_12(CODE[11]), STR_11(CODE[10]), STR_10(CODE[9]), 
		 -> STR_9(CODE[10]), STR_8(CODE[10]), STR_7(CODE[8]), STR_6(CODE[10]), 
		 -> STR_5(CODE[10]), STR_4(CODE[6]), STR_3(CODE[9]), STR_2(CODE[6]), 
		 -> STR_1(CODE[6]), 

    water_levels	PTR unsigned char [5] size(2) Largest target is 10
		 -> STR_17(CODE[10]), STR_16(CODE[5]), STR_15(CODE[7]), STR_14(CODE[4]), 
		 -> STR_13(CODE[5]), 

    washing_prog	PTR unsigned char [12] size(2) Largest target is 11
		 -> STR_12(CODE[11]), STR_11(CODE[10]), STR_10(CODE[9]), STR_9(CODE[10]), 
		 -> STR_8(CODE[10]), STR_7(CODE[8]), STR_6(CODE[10]), STR_5(CODE[10]), 
		 -> STR_4(CODE[6]), STR_3(CODE[9]), STR_2(CODE[6]), STR_1(CODE[6]), 


Critical Paths under _main in COMMON

    _main->_clear_scr
    _washing_program_display->_clear_scr
    _wash_level_display->_clear_scr
    _start_stop_display->_clear_scr
    _run_program->___awdiv
    _run_program->___awmod
    _run_program->_clear_scr
    _door_open->_clear_scr
    ___fltol->___xxtofl
    ___flsub->___fladd
    ___flsub->___xxtofl
    ___flmul->__Umul8_16
    ___flmul->___xxtofl
    ___flge->___xxtofl
    _power_on->_clear_scr
    _clear_scr->_clcd_write
    _clcd_putch->___awdiv
    _clcd_putch->___awmod
    _clcd_print->_clcd_write
    _init_display_controller->_clcd_write

Critical Paths under _isr in COMMON

    None.

Critical Paths under _main in BANK0

    _main->_run_program
    _washing_program_display->_clcd_putch
    _wash_level_display->_clcd_putch
    _start_stop_display->_clcd_print
    _run_program->___flge
    _door_open->_clcd_print
    ___fltol->___flmul
    ___flsub->___flmul
    ___flmul->___xxtofl
    ___flge->___flsub
    _power_on->_clcd_putch
    _clcd_putch->___awdiv
    _init_clcd->_init_display_controller

Critical Paths under _isr in BANK0

    None.

Critical Paths under _main in BANK1

    None.

Critical Paths under _isr in BANK1

    None.

Critical Paths under _main in BANK3

    None.

Critical Paths under _isr in BANK3

    None.

Critical Paths under _main in BANK2

    None.

Critical Paths under _isr in BANK2

    None.

Call Graph Tables:

 ---------------------------------------------------------------------------------
 (Depth) Function   	        Calls       Base Space   Used Autos Params    Refs
 ---------------------------------------------------------------------------------
 (0) _main                                                 5     5      0  102355
                                             64 BANK0      2     2      0
                                              0 BANK1      3     3      0
                         _clcd_print
                          _clear_scr
                        _init_config
                           _power_on
                _read_digital_keypad
                        _run_program
                 _start_stop_display
                 _wash_level_display
            _washing_program_display
 ---------------------------------------------------------------------------------
 (1) _washing_program_display                              4     4      0   13515
                                              6 BANK0      4     4      0
                         _clcd_print
                         _clcd_putch
                          _clear_scr
 ---------------------------------------------------------------------------------
 (1) _wash_level_display                                   4     4      0   13515
                                              6 BANK0      4     4      0
                         _clcd_print
                         _clcd_putch
                          _clear_scr
 ---------------------------------------------------------------------------------
 (1) _start_stop_display                                   2     2      0   11262
                                              3 BANK0      2     2      0
                         _clcd_print
                          _clear_scr
               _set_time_for_program
 ---------------------------------------------------------------------------------
 (2) _set_time_for_program                                 2     2      0       0
                                              3 COMMON     2     2      0
 ---------------------------------------------------------------------------------
 (1) _run_program                                          8     8      0   37928
                                             56 BANK0      8     8      0
                            ___awdiv
                            ___awmod
                             ___flge
                            ___flmul
                            ___flsub
                            ___fltol
                             ___wmul
                           ___xxtofl
                         _clcd_print
                         _clcd_putch
                          _clear_scr
                          _door_open
 ---------------------------------------------------------------------------------
 (2) _door_open                                            1     1      0   11200
                                              3 BANK0      1     1      0
                         _clcd_print
                          _clear_scr
 ---------------------------------------------------------------------------------
 (2) ___xxtofl                                            14    10      4     926
                                              3 COMMON     4     0      4
                                              0 BANK0     10    10      0
 ---------------------------------------------------------------------------------
 (2) ___wmul                                               6     2      4    1926
                                              3 COMMON     4     0      4
                                              0 BANK0      2     2      0
 ---------------------------------------------------------------------------------
 (2) ___fltol                                             11     7      4     517
                                             36 BANK0     11     7      4
                            ___flmul (ARG)
                           ___xxtofl (ARG)
 ---------------------------------------------------------------------------------
 (2) ___flsub                                              8     0      8    3367
                                             36 BANK0      8     0      8
                            ___fladd
                            ___flmul (ARG)
                           ___xxtofl (ARG)
 ---------------------------------------------------------------------------------
 (3) ___fladd                                             20    12      8    3122
                                              3 COMMON     4     4      0
                                              0 BANK0     16     8      8
 ---------------------------------------------------------------------------------
 (2) ___flmul                                             26    18      8    3713
                                             10 BANK0     26    18      8
                          __Umul8_16
                           ___xxtofl (ARG)
 ---------------------------------------------------------------------------------
 (3) __Umul8_16                                            9     7      2     980
                                              3 COMMON     4     2      2
                                              0 BANK0      5     5      0
 ---------------------------------------------------------------------------------
 (2) ___flge                                              12     4      8     446
                                             44 BANK0     12     4      8
                            ___flmul (ARG)
                            ___flsub (ARG)
                           ___xxtofl (ARG)
 ---------------------------------------------------------------------------------
 (2) ___awmod                                              7     3      4    1153
                                              3 COMMON     5     1      4
                                              0 BANK0      2     2      0
 ---------------------------------------------------------------------------------
 (2) ___awdiv                                              9     5      4    1165
                                              3 COMMON     5     1      4
                                              0 BANK0      4     4      0
 ---------------------------------------------------------------------------------
 (1) _read_digital_keypad                                  2     2      0      31
                                              3 COMMON     2     2      0
 ---------------------------------------------------------------------------------
 (1) _power_on                                             4     4      0   13682
                                              6 BANK0      4     4      0
                         _clcd_print
                         _clcd_putch
                          _clear_scr
 ---------------------------------------------------------------------------------
 (2) _clear_scr                                            1     1      0     962
                                              7 COMMON     1     1      0
                         _clcd_write
 ---------------------------------------------------------------------------------
 (2) _clcd_putch                                           2     1      1    2284
                                              4 BANK0      2     1      1
                            ___awdiv (ARG)
                            ___awmod (ARG)
                         _clcd_write
 ---------------------------------------------------------------------------------
 (2) _clcd_print                                           3     0      3   10238
                                              0 BANK0      3     0      3
                         _clcd_write
 ---------------------------------------------------------------------------------
 (1) _init_config                                          0     0      0     962
                          _init_clcd
                _init_digital_keypad
                        _init_timer2
 ---------------------------------------------------------------------------------
 (2) _init_timer2                                          0     0      0       0
 ---------------------------------------------------------------------------------
 (2) _init_digital_keypad                                  0     0      0       0
 ---------------------------------------------------------------------------------
 (2) _init_clcd                                            0     0      0     962
            _init_display_controller
 ---------------------------------------------------------------------------------
 (3) _init_display_controller                              2     2      0     962
                                              0 BANK0      2     2      0
                         _clcd_write
 ---------------------------------------------------------------------------------
 (3) _clcd_write                                           4     3      1     962
                                              3 COMMON     4     3      1
 ---------------------------------------------------------------------------------
 Estimated maximum stack depth 3
 ---------------------------------------------------------------------------------
 (Depth) Function   	        Calls       Base Space   Used Autos Params    Refs
 ---------------------------------------------------------------------------------
 (5) _isr                                                  3     3      0       0
                                              0 COMMON     3     3      0
 ---------------------------------------------------------------------------------
 Estimated maximum stack depth 5
 ---------------------------------------------------------------------------------

 Call Graph Graphs:

 _main (ROOT)
   _clcd_print
     _clcd_write
   _clear_scr
     _clcd_write
   _init_config
     _init_clcd
       _init_display_controller
         _clcd_write
     _init_digital_keypad
     _init_timer2
   _power_on
     _clcd_print
     _clcd_putch
       ___awdiv (ARG)
       ___awmod (ARG)
       _clcd_write (ARG)
     _clear_scr
   _read_digital_keypad
   _run_program
     ___awdiv
     ___awmod
     ___flge
       ___flmul (ARG)
         __Umul8_16
         ___xxtofl (ARG)
       ___flsub (ARG)
         ___fladd
         ___flmul (ARG)
         ___xxtofl (ARG)
       ___xxtofl (ARG)
     ___flmul
     ___flsub
     ___fltol
       ___flmul (ARG)
       ___xxtofl (ARG)
     ___wmul
     ___xxtofl
     _clcd_print
     _clcd_putch
     _clear_scr
     _door_open
       _clcd_print
       _clear_scr
   _start_stop_display
     _clcd_print
     _clear_scr
     _set_time_for_program
   _wash_level_display
     _clcd_print
     _clcd_putch
     _clear_scr
   _washing_program_display
     _clcd_print
     _clcd_putch
     _clear_scr

 _isr (ROOT)

 Address spaces:
Name               Size   Autos  Total    Cost      Usage
BANK3               60      0       0       9        0.0%
BITBANK3            60      0       0       8        0.0%
SFR3                 0      0       0       4        0.0%
BITSFR3              0      0       0       4        0.0%
BANK2               60      0       0      11        0.0%
BITBANK2            60      0       0      10        0.0%
SFR2                 0      0       0       5        0.0%
BITSFR2              0      0       0       5        0.0%
BANK1               50      3      29       7       51.2%
BITBANK1            50      0       0       6        0.0%
SFR1                 0      0       0       2        0.0%
BITSFR1              0      0       0       2        0.0%
BANK0               50     42      50       5      100.0%
BITBANK0            50      0       0       4        0.0%
SFR0                 0      0       0       1        0.0%
BITSFR0              0      0       0       1        0.0%
COMMON               E      8       B       1       78.6%
BITCOMMON            E      0       0       0        0.0%
CODE                 0      0       0       0        0.0%
DATA                 0      0      84      12        0.0%
ABS                  0      0      84       3        0.0%
NULL                 0      0       0       0        0.0%
STACK                0      0       0       2        0.0%
EEDATA             100      0       0       0        0.0%


Microchip Technology PIC Macro Assembler V2.32 build 20210201212658 
Symbol Table                                                                                   Tue Oct 19 13:58:39 2021

                               pc 0002                    clcd_print@addr 0022  __size_of_init_display_controller 0052  
                              l75 1350                      ___awdiv@sign 0021                                fsr 0004  
             ___wmul@multiplicand 0075               __Umul8_16@word_mpld 0022                               l110 175B  
                             l103 1327                               l202 15AB                               l115 1523  
                             l204 15B1                               l205 15E6                               l128 0B11  
                             l401 140A                               l225 043D                               l242 1370  
                             l251 0814                               l139 0C3E                               l245 14CA  
                             l248 130D                               l264 1302                               l257 143D  
                             l274 07FD                               l186 0CFB                               l198 0D6F  
                             l279 07FC                               l296 131A                               l552 164F  
                             l800 0792                               l713 0F4D                               l705 0FFF  
                             l723 0F93                               l565 157E                               l573 177A  
                             l717 0F71                               l734 0FF3                               l726 0FD1  
                             l807 13CD                               l735 0FFF                               l399 13F0  
                             l576 17E6                               l592 16B6                               l832 0839  
                             l577 17FF                               l809 13DF                               l585 16CB  
                             l738 13B6                               l834 08D0                               l595 16CB  
                             l692 0DD3                               l845 089A                               l846 08A6  
                             l838 087E                               l696 0E7C                               l794 070A  
                             l698 0E51                               l788 079E                               _GIE 005F  
                             _RB0 0030                               _RC1 0039                               _RC2 003A  
                             _RE1 0049                               _RE2 004A                               _PR2 0092  
            _set_time_for_program 0C3F                               _min 006C                               _sec 0078  
                             _isr 143E                    clcd_putch@addr 0024                               fsr0 0004  
                  clcd_putch@data 0025                               indf 0000                      ___awmod@sign 0021  
    read_digital_keypad@longpress 006A                      ___flmul@aexp 0038                      ___flmul@bexp 003D  
                    ___flmul@sign 0037                      ___flmul@temp 0042                      ___flmul@prod 003E  
                     _run_program 003F                      ___fltol@exp1 004E                              l4001 1634  
           ??_read_digital_keypad 0073                              l4003 163B                              l4005 1641  
                            l4021 1532                              l4013 1524                              l4101 16AB  
                            l4007 1646                              l4031 154B                              l4023 1536  
                            l4015 1527                              l4103 16BB                              l4009 164B  
                            l4041 156A                              l4033 154F                              l4025 153B  
                            l4017 152B                              l4201 06D6                              l4121 0450  
                            l4113 043E                              l4105 16C0                              l4035 1553  
                            l4027 1541                              l4043 1570                              l4019 1530  
                            l4051 175C                              l4211 06EE                              l4203 06DA  
                            l4131 046C                              l4123 0455                              l4115 0445  
                            l4107 1393                              l4301 134D                              l4045 1575  
                            l4037 155D                              l4029 1544                              l4061 17BE  
                            l4053 1772                              l4221 070F                              l4213 06EF  
                            l4205 06DB                              l4141 0481                              l4133 0471  
                            l4125 045A                              l4117 044B                              l4109 1397  
                            l4303 134E                              l4047 157A                              l4039 1563  
                            l4063 17C2                              l4055 178E                              l4223 0714  
                            l4231 0745                              l4215 06F3                              l4207 06E4  
                            l4151 049D                              l4143 0486                              l4135 0477  
                            l4127 0462                              l4119 044F                              l4071 1650  
                            l4305 134F                              l4321 07BC                              l4065 17FC  
                            l4057 1796                              l4241 0778                              l4233 0752  
                            l4225 0722                              l4217 0707                              l4209 06EA  
                            l4161 04C8                              l4153 04A2                              l4145 048E  
                            l4137 047B                              l4129 0464                              l3601 0DA4  
                            l4081 167C                              l4073 165D                              l4401 0B29  
                            l4331 07D9                              l4323 07C2                              l4315 07AA  
                            l4307 07A0                              l4067 17FE                              l4059 179A  
                            l4243 0786                              l4235 075D                              l4227 0726  
                            l4171 0565                              l4163 04E5                              l4147 0490  
                            l4139 047C                              l3611 0DB6                              l3603 0DAA  
                            l4083 1684                              l4411 0B5B                              l4403 0B2E  
                            l3541 1352                              l4333 07DF                              l4341 07E4  
                            l4325 07C7                              l4317 07B5                              l4309 07A5  
                            l4245 078A                              l4237 076C                              l4229 073F  
                            l4181 05C8                              l4173 056E                              l4165 0501  
                            l4157 04AB                              l4149 0498                              l3701 0ECF  
                            l3613 0DBB                              l3621 0DCB                              l3605 0DAB  
                            l4093 1692                              l4085 1686                              l4077 1666  
                            l4261 0841                              l4253 0818                              l4501 00C7  
                            l4421 0BFD                              l4413 0B67                              l4405 0B44  
                            l3543 135C                              l3551 1415                              l4343 07ED  
                            l4335 07E1                              l4327 07CE                              l4319 07BA  
                            l4247 078B                              l4239 0776                              l4191 0668  
                            l4183 05E1                              l4175 057E                              l4167 052D  
                            l4159 04BB                              l3703 0EE7                              l3711 0F3F  
                            l3631 0DE9                              l3623 0DD9                              l3615 0DC0  
                            l3607 0DB1                              l4087 168A                              l4095 16A4  
                            l4079 167B                              l4271 0863                              l4255 081D  
                            l4511 0132                              l4503 00E4                              l4431 09FC  
                            l4423 09E8                              l4415 0B6D                              l4407 0B46  
                            l3545 135E                              l3561 1479                              l3801 1316  
                            l3553 1425                              l4345 07F2                              l4329 07D4  
                            l4353 07FC                              l4249 0796                              l4193 068E  
                            l4185 05FE                              l4177 059B                              l4169 0549  
                            l3721 0F6C                              l3713 0F55                              l3705 0F25  
                            l3641 0DFD                              l3633 0DED                              l3625 0DDD  
                            l3617 0DC8                              l3609 0DB5                              l4281 0894  
                            l4273 0867                              l4265 084A                              l4257 0821  
                            l4521 01E6                              l4513 0141                              l4505 0110  
                            l4441 0A2E                              l4433 0A01                              l4425 09EE  
                            l4417 0BB3                              l4409 0B4C                              l4601 08E0  
                            l3547 1364                              l3571 14AB                              l3563 1484  
                            l3803 1317                              l3555 142D                              l4371 1702  
                            l4363 16CF                              l4347 07F4                              l4195 06B6  
                            l4187 062B                              l4179 05AB                              l3731 0F7F  
                            l3723 0F70                              l3715 0F5A                              l3707 0F2B  
                            l3651 0E11                              l3643 0E01                              l3635 0DF1  
                            l3627 0DE1                              l3619 0DC9                              l4291 08C7  
                            l4283 089E                              l4275 0875                              l4267 084F  
                            l4259 0831                              l4531 0214                              l4523 0203  
                            l4515 0150                              l4507 011E                              l3811 0C44  
                            l4451 0AD0                              l4443 0A3A                              l4435 0A17  
                            l4427 09EF                              l4419 0BB9                              l4611 091D  
                            l4603 08EF                              l3573 14AE                              l3565 148B  
                            l3549 140B                              l3805 0803                              l3557 131B  
                            l4381 1716                              l4365 16DA                              l4357 16CC  
                            l4349 07FA                              l4197 06BF                              l4189 063B  
                            l3741 0F90                              l3725 0F75                              l3733 0F81  
                            l3709 0F30                              l3661 0E35                              l3653 0E15  
                            l3645 0E05                              l3637 0DF5                              l3629 0DE5  
                            l3581 0D77                              l4293 08C8                              l4285 08A8  
                            l4277 0885                              l4269 085C                              l4541 0251  
                            l4533 0216                              l4525 0206                              l4517 0170  
                            l4509 0123                              l3821 0C52                              l3813 0C48  
                            l4461 14ED                              l4453 14CE                              l4445 0A40  
                            l4437 0A19                              l4429 09F4                              l4621 0942  
                            l4613 0922                              l4605 08FE                              l3575 14B5  
                            l3567 149D                              l3559 1322                              l4391 174D  
                            l4383 171C                              l4367 16E0                              l4199 06CD  
                            l3751 0FAF                              l3727 0F78                              l3719 0F63  
                            l3735 0F85                              l3671 0E69                              l3663 0E55  
                            l3655 0E19                              l3647 0E09                              l3639 0DF9  
                            l3591 0D8C                              l3583 0D7D                              l4287 08BE  
                            l4279 0890                              l4551 02AE                              l4543 0261  
                            l4535 021B                              l4519 01AB                              l4527 0207  
                            l3903 0D28                              l3831 0C75                              l3823 0C6B  
                            l3807 0C3F                              l4463 14FC                              l4455 14D4  
                            l4447 0A86                              l4439 0A1F                              l4631 096B  
                            l4623 094B                              l4615 0928                              l4607 090D  
                            l3577 14C3                              l3569 14A4                              l4297 133B  
                            l4385 172A                              l4377 1705                              l4369 16E6  
                            l3761 0FE8                              l3753 0FCD                              l3745 0F98  
                            l3737 0F86                              l3729 0F7A                              l3673 0E72  
                            l3665 0E60                              l3649 0E0D                              l3657 0E1D  
                            l3593 0D94                              l3585 0D81                              l4289 08C3  
                            l4561 035C                              l4553 0328                              l4545 0288  
                            l4537 0235                              l4529 020C                              l3841 0C98  
                            l3817 0C4D                              l3809 0C40                              l4481 1522  
                            l4465 150B                              l4457 14D9                              l4449 0A8C  
                            l4393 0B15                              l4641 0983                              l4633 0973  
                            l4625 0953                              l4617 0935                              l4609 0918  
                            l4299 134A                              l4387 172F                              l4379 1710  
                            l3771 0FFE                              l3763 0FE9                              l3755 0FD6  
                            l3747 0F9D                              l3739 0F8A                              l3691 0EBA  
                            l3683 0E90                              l3667 0E62                              l3675 0E76  
                            l3659 0E1E                              l3595 0D95                              l3587 0D82  
                            l3579 0D70                              l4571 03B5                              l4563 0362  
                            l4555 0338                              l4547 0298                              l4539 023B  
                            l4491 005B                              l3851 0CBF                              l3835 0C7A  
                            l3827 0C70                              l3907 0D41                              l4467 1513  
                            l4475 151A                              l4459 14DE                              l4395 0B1B  
                            l4651 09A9                              l4643 098C                              l4635 0977  
                            l4627 095B                              l4619 093B                              l4389 173E  
                            l3781 13D6                              l3773 13BA                              l3765 0FED  
                            l3757 0FDB                              l3749 0FAB                              l3693 0EBC  
                            l3685 0EA9                              l3677 0E80                              l3669 0E68  
                            l3589 0D87                              l3597 0D97                              l3941 1588  
                            l4581 03FE                              l4573 03D2                              l4557 0348  
                            l4565 036F                              l4549 02A8                              l4493 0072  
                            l4485 0042                              l3861 0CCE                              l3845 0C9D  
                            l3837 0C93                              l4477 1520                              l4469 1518  
                            l4397 0B1C                              l4653 09B0                              l4645 0999  
                            l4637 0978                              l4629 0963                              l3791 1307  
                            l3783 13DB                              l3775 13BC                              l3767 0FEF  
                            l3759 0FE3                              l3695 0EC0                              l3687 0EAD  
                            l3679 0E85                              l3599 0D9F                              l3951 15C8  
                            l3943 158D                              l4591 0432                              l4583 0403  
                            l4575 03EF                              l4567 038C                              l4559 034E  
                            l4495 0081                              l4487 0047                              l3855 0CC4  
                            l3847 0CB6                              l4399 0B21                              l4831 09D0  
                            l4655 09B8                              l4647 099E                              l4639 097A  
                            l4663 09C7                              l3793 1308                              l3777 13C3  
                            l3769 0FFA                              l3697 0EC1                              l3689 0EB1  
                            l3961 13F7                              l3953 15D7                              l3945 159C  
                            l3937 157F                              l4593 0434                              l4585 0412  
                            l4577 03F4                              l4569 03A9                              l4497 009E  
                            l4489 004C                              l4841 0D08                              l3873 0CDD  
                            l3865 0CD3                              l3849 0CBA                              l4833 0C5A  
                            l4657 09BC                              l4649 09A3                              l4665 09DE  
                            l3787 1303                              l3795 12FD                              l3971 15EA  
                            l3779 13C7                              l3699 0ECA                              l3963 13FE  
                            l3955 13E0                              l3947 15B4                              l3939 1585  
                            l4587 0421                              l4579 03FB                              l4499 00BB  
                            l4843 0D30                              l3891 0D1E                              l3883 0D00  
                            l3875 0CF6                              l3859 0CC9                              l4835 0C82  
                            l4659 09C0                              l4595 08D1                              l3789 1306  
                            l3797 130E                              l3981 15FE                              l3973 15EE  
                            l3965 1404                              l3957 13E4                              l3949 15B9  
                            l4589 042F                              l4845 0D49                              l3885 0D19  
                            l3869 0CD8                              l4837 0CA5                              l4597 08D6  
                            l3799 1312                              l3991 1614                              l3983 1602  
                            l3975 15F3                              l3959 13E8                              l3895 0D23  
                            l3879 0CFB                              l4839 0CE5                              l4599 08DA  
                            l3993 1618                              l3985 1604                              l3977 15F5  
                            l3969 15E7                              l3995 161C                              l3987 160A  
                            l3979 15F9                              ?_isr 0070                              l3997 162D  
                            l3989 160D                              l3999 1633                              STR_1 11AC  
                            STR_2 11B2                              STR_3 115E                              STR_4 11A6  
                            STR_5 111A                              STR_6 1124                              STR_7 1178  
                            STR_8 112E                              STR_9 1142                              u4000 0DB5  
                            u4001 0DB4                              u4010 0DBB                              u4011 0DBA  
                            u4020 0DC0                              u4021 0DBF                              u4110 0E7C  
                            u4030 0DD9                              u4111 0E7B                              u4031 0DD8  
                            u4120 0E80                              u4040 0DDD                              u5001 058D  
                            u4201 0EFE                              u4121 0E7F                              u4105 0E6B  
                            u4041 0DDC                              u5002 0594                              u4210 0F12  
                            u4202 0EFF                              u4130 0E85                              u4050 0E35  
                            u5011 05BA                              u5003 059B                              u4211 0F13  
                            u4203 0F04                              u4131 0E84                              u4051 0E34  
                            u5012 05C1                              u4300 0F8A                              u4220 0F30  
                            u4212 0F18                              u4204 0F05                              u4060 0E40  
                            u5013 05C8                              u4301 0F89                              u4221 0F2F  
                            u4213 0F19                              u4205 0F0A                              u4141 0E9B  
                            u4061 0E3E                              u4310 0F90                              u4230 0F55  
                            u4206 0F0B                              u4150 0EAD                              u4142 0EA2  
                            u4070 0E41                              u5031 05F0                              u4311 0F8F  
                            u4231 0F54                              u4151 0EAC                              u4143 0EA9  
                            u4055 0E31                              u5200 0735                              u5120 06DA  
                            u5032 05F7                              u4400 0FED                              u4320 0F97  
                            u4240 0F5A                              u4160 0EB1                              u4080 0E55  
                            u5121 06D9                              u5105 06B8                              u5041 061D  
                            u5033 05FE                              u5025 05CA                              u4401 0FEC  
                            u4321 0F96                              u4241 0F59                              u4161 0EB0  
                            u4081 0E54                              u5210 0752                              u5042 0624  
                            u4410 0FFE                              u4330 0F9D                              u4170 0EC0  
                            u4090 0E68                              u5211 0751                              u5115 06CF  
                            u5051 064A                              u5043 062B                              u4411 0FFD  
                            u4331 0F9C                              u4171 0EBF                              u4091 0E67  
                            u4420 13C7                              u5220 076C                              u5140 06EE  
                            u5060 0674                              u5052 0651                              u4340 0FAF  
                            u4260 0F70                              u4500 1404                              u5300 0884  
                            u4421 13C6                              u5221 076B                              u5205 0730  
                            u5141 06ED                              u5053 0658                              u4341 0FAE  
                            u4261 0F6F                              u4501 1403                              u5301 0883  
                            u4510 15EE                              u5230 078A                              u5150 06F3  
                            u4350 0FBE                              u4270 0F75                              u4190 0EE7  
                            u4511 15ED                              u5231 0789                              u5215 074E  
                            u5151 06F2                              u5135 06DD                              u5071 0680  
                            u4271 0F74                              u4255 0F65                              u4191 0EE6  
                            u5400 07BA                              u4600 1646                              u4520 15F9  
                            u4440 13DB                              u5160 0707                              u5080 069C  
                            u5072 0687                              u4360 0FCD                              u4280 0F7F  
                            u5320 0894                              u5240 081D                              u5401 07B9  
                            u4601 1645                              u4521 15F8                              u4441 13DA  
                            u5225 0768                              u5161 0706                              u5073 068E  
                            u5065 066F                              u4361 0FCC                              u4281 0F7E  
                            u4193 0EE3                              u4185 0EC3                              u5321 0893  
                            u5241 081C                              u5410 07C7                              u4530 160A  
                            u4610 152B                              u5170 070E                              u4370 0FD6  
                            u4290 0F85                              u5330 089A                              u5250 0821  
                            u4450 1585                              u5411 07C6                              u4531 1609  
                            u4611 152A                              u4435 13CE                              u5171 070D  
                            u5091 06A8                              u4371 0FD5                              u4355 0FB9  
                            u4291 0F84                              u5331 0899                              u5315 0889  
                            u5251 0820                              u4451 1584                              _PEIE 005E  
                            u5420 07CE                              u4620 1536                              u4700 1772  
                            u5180 0714                              u5092 06AF                              u4380 0FDB  
                            u5340 089E                              u5260 0841                              u4460 15B1  
                            u5500 0B1B                              u5421 07CD                              u4621 1535  
                            u4701 1771                              u5181 0713                              u5093 06B6  
                            u5085 0697                              u4381 0FDA                              u5341 089D  
                            u5261 0840                              u4461 15B0                              u5501 0B1A  
                            u5430 07D4                              u4550 161C                              u4630 1541  
                            u4710 178E                              u5190 0726                              u4390 0FE8  
                            u4470 13E8                              u5350 08B3                              u5510 0B29  
                            u5431 07D3                              u4551 161B                              u4631 1540  
                            u4711 178D                              u5191 0725                              u4391 0FE7  
                            u4471 13E7                              u5511 0B28                              u5440 07DF  
                            u4720 179A                              u4800 1691                              u5360 08C3  
                            u5280 0862                              u5600 14D4                              u5520 0B44  
                            u5441 07DE                              u4545 160E                              u4721 1799  
                            u4801 1690                              u5361 08C2                              u5281 0861  
                            u5601 14D3                              u5521 0B43                              u3930 1359  
                            u5450 07ED                              u4570 162D                              u4650 1553  
                            u5370 08C7                              u5610 1513                              u5530 0B6D  
                            u3931 1355                              u5451 07EC                              u4571 162C  
                            u4651 1552                              u4731 17A9                              u5371 08C6  
                            u5355 08AE                              u5275 0854                              u5611 1512  
                            u5531 0B6C                              u5460 07F2                              u5380 07A5  
                            u4660 155D                              u4740 17C2                              u4732 17AA  
                            u4900 047B                              u4820 16A3                              u5700 034E  
                            u5620 1520                              u5540 0BB9                              u5461 07F1  
                            u5381 07A4                              u4565 161D                              u4661 155C  
                            u4645 1545                              u4741 17C1                              u4733 17AF  
                            u4901 047A                              u4821 16A2                              u4485 13F1  
                            u5701 034D                              u5621 151F                              u5541 0BB8  
                            u5525 0B40                              u3950 143D                              u5470 07FA  
                            u5390 07B5                              u4590 1641                              u4734 17B0  
                            u4910 0481                              u4830 16AA                              u5710 0362  
                            u5630 0047                              u5550 09EE                              u3951 143C  
                            u5471 07F9                              u5391 07B4                              u4591 1640  
                            u4575 1629                              u4751 17D1                              u4735 17B5  
                            u4911 0480                              u4831 16A9                              u4815 1693  
                            u4495 13F8                              u5295 0876                              u5711 0361  
                            u5631 0046                              u5551 09ED                              u3944 135C  
                            u5480 16E6                              u4680 1570                              u4760 17FC  
                            u4752 17D2                              u4736 17B6                              u4920 0486  
                            u3960 0D81                              u5720 03F4                              u5640 0214  
                            u5560 09FC                              u5800 0973                              u5481 16E5  
                            u4585 1635                              u4681 156F                              u4665 1559  
                            u4761 17FB                              u4753 17D7                              u4921 0485  
                            u3961 0D80                              u5721 03F3                              u5641 0213  
                            u5561 09FB                              u5801 0972                              u5490 171C  
                            u4690 1575                              u4754 17D8                              u4930 049D  
                            u3970 0D87                              u4850 16BB                              u4770 165D  
                            u5730 03FB                              u5650 023B                              u5570 0A17  
                            u5810 099E                              u5491 171B                              u4691 1574  
                            u4675 1564                              u4755 17DD                              u4931 049C  
                            u3971 0D86                              u4851 16BA                              u4771 165C  
                            u5731 03FA                              u5651 023A                              u5571 0A16  
                            u5811 099D                              u4756 17DE                              u4940 04A2  
                            u3980 0D8C                              u4860 16C0                              u4780 1674  
                            u5660 0251                              u5580 0A40                              u5820 09A9  
                            u5740 0918                              u4765 17F8                              u4941 04A1  
                            u3981 0D8B                              u4861 16BF                              u4845 16AD  
                            u5661 0250                              u5581 0A3F                              u5821 09A8  
                            u5741 0917                              u4870 044F                              u3990 0DAA  
                            u4790 168A                              u5670 0288                              u5590 0A8C  
                            u5830 09B8                              u5750 093B                              u4951 04F3  
                            u4871 044E                              u3991 0DA9                              u4791 1689  
                            u5671 0287                              u5591 0A8B                              u5575 0A13  
                            u5831 09B7                              u5751 093A                              u4952 04FA  
                            u4880 0455                              u5680 02AE                              u5760 0942  
                            u4961 050F                              u4953 0501                              u4881 0454  
                            u4785 166F                              u5681 02AD                              u5665 024D  
                            u5761 0941                              u4962 0516                              u4890 045A  
                            u5690 0328                              u5770 0953                              u5907 1491  
                            u4971 053B                              u4963 051D                              u4891 0459  
                            u5691 0327                              u5675 0284                              u5771 0952  
                            u4972 0542                              u5780 095B                              u5917 14A1  
                            u4981 0557                              u4973 0549                              u5781 095A  
                            u4982 055E                              u5790 096B                              u5927 14B9  
                            u4983 0565                              u5847 0118                              u5791 096A  
                            u5937 14C7                              u5857 0429                              u5947 1361  
                            u5867 1724                              u4995 0567                              u5957 136B  
                            u5877 1755                              u5887 1324                              u5897 147F  
                            _main 08D1                              _time 0062                              btemp 007E  
                            start 000C                    clcd_write@byte 0076                    clcd_write@mode 0073  
       ??_washing_program_display 0026                             ??_isr 0070                     ___fltol@sign1 004D  
                 __end_of___fladd 1000                             ?_main 0070                   __end_of___awdiv 1650  
                           STR_10 1167                             STR_11 1138                             STR_20 1011  
                           STR_12 10F1                             STR_21 1099                             STR_13 11BD  
                           STR_30 10C1                             STR_22 1033                             STR_14 11C2  
                           STR_23 10FC                             STR_31 108B                             STR_15 1187  
                           STR_40 1000                             STR_32 10CE                             STR_24 10B4  
                           STR_16 11B8                             STR_41 111F                             STR_33 1155  
                           STR_25 107D                             STR_17 1110                             STR_42 11A0  
                           STR_26 10E6                             STR_18 1043                             STR_34 1000  
                           STR_35 119A                             STR_43 118E                             STR_27 1106  
                           STR_19 1061                             STR_44 11A0                             STR_36 1194  
                           STR_28 10DA                   __end_of___awmod 157F                             STR_45 118E  
                           STR_37 1170                             STR_29 1022                             STR_46 1180  
                           STR_38 10A7                             STR_47 111F                             STR_39 114C  
                           STR_48 106F                             STR_49 1052                   __end_of___flmul 079F  
                 __end_of___flsub 13B7                   __end_of___fltol 16CC                   ___awdiv@divisor 0073  
           ?_set_time_for_program 0070                             i1l311 145E                             i1l313 1472  
                    ?_init_config 0070                   ___awdiv@counter 0020                             _PORTB 0006  
                           _PORTD 0008                             _TRISB 0086                             _TRISD 0088  
                    ?_init_timer2 0070        __end_of_wash_level_display 0B12                             pclath 000A  
                           status 0003                             wtemp0 007E                   __initialization 000F  
                    __end_of_main 09E5                            ??_main 0060                    run_program@key 005F  
     __size_of_start_stop_display 0059   __end_of_washing_program_display 0C3F                  ___awdiv@dividend 0075  
                          i1l3361 1444                            i1l3371 146A                            i1l3363 1455  
                          i1l3373 146C                            i1l3365 1457                            i1l3367 145C  
                          i1l3375 1470                            i1l3359 143E                            i1l3369 1463  
                          u390_20 145C                            u390_21 145B                            u391_20 1463  
                          u391_21 1462                            u392_20 146A                            u392_21 1469  
                          u388_20 1444                            u388_21 1443                            u389_20 1455  
                          u389_21 1454                            _TMR2IE 0461                            _TMR2IF 0061  
                          _TMR2ON 0092                            _TRISC1 0439                            _TRISC2 043A  
                          _TRISE1 0449                            _TRISE2 044A                  __end_of___xxtofl 08D1  
     __end_of_init_digital_keypad 1303                            ___flge 175C           _init_display_controller 1479  
                       ??___fladd 0028                            ___wmul 13E0                         ??___awdiv 0077  
                       ??___awmod 0077                         ??___flmul 0032                         ??___flsub 0077  
                       ??___fltol 0048                  ___awdiv@quotient 0022                   ___awmod@divisor 0073  
          ??_set_time_for_program 0073                   ___awmod@counter 0020                __size_of__Umul8_16 0029  
                          saved_w 007E                  __end_of_power_on 175C                        ___flge@ff1 004C  
                      ___flge@ff2 0050                      ___xxtofl@arg 0026                      ___xxtofl@exp 0025  
                    ___xxtofl@val 0073           __end_of__initialization 003B                        ___fltol@f1 0044  
                  __pcstackCOMMON 0070                      __pidataBANK0 07FE                      __pidataBANK1 1371  
              __size_of_clear_scr 000D              __size_of_init_config 0016                      ?_run_program 0070  
            __size_of_init_timer2 000D                        __pbssBANK0 0062                        __pbssBANK1 00C2  
              __size_of_door_open 0068                __size_of_init_clcd 000B         ??_init_display_controller 0020  
                      _clcd_print 140B                        _clcd_putch 0800                        _clcd_write 1351  
               __end_of__Umul8_16 13E0                        __pmaintext 08D1                           ?___flge 004C  
                         ?___wmul 0073                        __pintentry 0004                           _T2CKPS0 0090  
                         _T2CKPS1 0091       __end_of_read_digital_keypad 07FE                         ?___xxtofl 0073  
                      __stringtab 11C6                 __end_of_clear_scr 1328                _wash_level_display 09E5  
                 __size_of___flge 00A4                           ___fladd 0D70                           ___awdiv 15E7  
                         ___awmod 1524                           ___flmul 043E                           ___flsub 1393  
                         ___fltol 1650                         ?_power_on 0070                   __size_of___wmul 002B  
             ?_wash_level_display 0070                 __end_of_door_open 15E7                           __ptext1 0B12  
                         __ptext2 09E5                           __ptext3 14CB                           __ptext4 0C3F  
                         __ptext5 003F                           __ptext6 157F                           __ptext7 0815  
                         __ptext8 13E0                           __ptext9 1650   __end_of_init_display_controller 14CB  
               __end_of_init_clcd 130E                      __size_of_isr 003B                        ??___xxtofl 0020  
                ___awmod@dividend 0075                           main@key 00C8              ??_wash_level_display 0026  
            end_of_initialization 003B             wash_level_display@key 0029                    _operation_mode 006D  
                     ?_clcd_print 0020                       ?_clcd_putch 0024                       ?_clcd_write 0073  
        ?_washing_program_display 0070                        _reset_mode 006E                        ??_power_on 0026  
                    __pstringtext 1000                        _rinse_time 0066        __end_of_start_stop_display 1524  
                     ___fladd@grs 0076        washing_program_display@key 0029                        _program_no 007A  
                   ___xxtofl@sign 0024                     clcd_print@str 0020              __size_of_run_program 03FF  
                     ___flmul@grs 0039                        _total_time 0064             start_stop_display@key 0024  
                  __end_of___flge 1800                    __end_of___wmul 140B      __size_of_init_digital_keypad 0006  
   __size_of_set_time_for_program 0131               start_initialization 000F               __size_of_clcd_print 0033  
             __size_of_clcd_putch 0015               __size_of_clcd_write 0020                       __end_of_isr 1479  
                        ??___flge 0054                          ??___wmul 0077                        init_fetch0 1328  
                       __Umul8_16 13B7                       __pdataBANK0 006F                       __pdataBANK1 00A0  
      read_digital_keypad@pre_key 006B                     ??_init_config 0077                         ___fladd@a 0024  
                       ___fladd@b 0020                     ??_init_timer2 0073                         ___flmul@a 002E  
                       ___flmul@b 002A                       __pbssCOMMON 0078                         ___flsub@a 0044  
                       ___flsub@b 0048                         ___latbits 0002                     __pcstackBANK0 0020  
                   __pcstackBANK1 00C6                 __size_of___xxtofl 00BC                         _clear_scr 131B  
                        ?___fladd 0020                          ?___awdiv 0073                          ?___awmod 0073  
                        ?___flmul 002A                          ?___flsub 0044                          ?___fltol 0044  
                      ?__Umul8_16 0073                 __size_of_power_on 0090                         __pstrings 11C6  
                       _door_open 157F                         _init_clcd 1303               __end_of_init_config 1351  
    __size_of_read_digital_keypad 005F               __end_of_init_timer2 131B          ?_init_display_controller 0070  
               interrupt_function 0004                    ___wmul@product 0020                      ??_clcd_print 0077  
                    ??_clcd_putch 0078                      ??_clcd_write 0074                        ?_clear_scr 0070  
                       _wash_time 0068                         _spin_time 00C4                       __stringbase 11D8  
               ___wmul@multiplier 0073  __size_of_washing_program_display 012D                        ?_door_open 0070  
              __end_of_clcd_print 143E                __end_of_clcd_putch 0815                __end_of_clcd_write 1371  
                      ?_init_clcd 0070                _start_stop_display 14CB       __size_of_wash_level_display 012D  
             _init_digital_keypad 12FD               ?_start_stop_display 0070                       ??__Umul8_16 0075  
                __size_of___fladd 0290                  __size_of___awdiv 0069                  __size_of___awmod 005B  
            ?_init_digital_keypad 0070                  __size_of___flmul 0361                  __size_of___flsub 0024  
                __size_of___fltol 007C                __end_of__stringtab 11D8              ??_start_stop_display 0023  
                     _init_config 133B                          ___xxtofl 0815                       _init_timer2 130E  
                   ??_run_program 0058                          __ptext10 1393                          __ptext11 0D70  
                        __ptext20 0800                          __ptext12 043E                          __ptext21 140B  
                        __ptext13 13B7                          __ptext22 133B                          __ptext14 175C  
                        __ptext23 130E                          __ptext15 1524                          __ptext24 12FD  
                        __ptext16 15E7                          __ptext25 1303                          __ptext17 079F  
                        __ptext26 1479                          __ptext18 16CC                          __ptext27 1351  
                        __ptext19 131B                          __ptext28 143E                     __size_of_main 0114  
    __end_of_set_time_for_program 0D70                          _level_no 0079           read_digital_keypad@mode 0074  
         read_digital_keypad@once 006F                       ??_clear_scr 0077                          _power_on 16CC  
           ??_init_digital_keypad 0073                          main@flag 00C6                         power_on@i 0029  
                     ??_door_open 0023                          isr@count 00C2                          init_ram0 132C  
                     ??_init_clcd 0077                          intlevel1 0000               __end_of_run_program 043E  
                       stringcode 11D0               _read_digital_keypad 079F           _washing_program_display 0B12  
          __Umul8_16@multiplicand 0073                      _washing_prog 00A0                          stringtab 11C6  
                    _water_levels 00B8                     ___fladd@signs 0073              ?_read_digital_keypad 0070  
                    ___fladd@aexp 0074                      ___fladd@bexp 0075              __Umul8_16@multiplier 0024  
               __Umul8_16@product 0020  
